---
triple:          'x86_64-apple-darwin'
binary-path:     main
relocations:
  - { offsetInCU: 0x3F, offset: 0x3F, size: 0x8, addend: 0x0, symName: __ZL5white, symObjAddr: 0x27668, symBinAddr: 0x100014000, symSize: 0x0 }
  - { offsetInCU: 0x1A0, offset: 0x1A0, size: 0x8, addend: 0x0, symName: __ZL3red, symObjAddr: 0x27670, symBinAddr: 0x100014008, symSize: 0x0 }
  - { offsetInCU: 0x1B9, offset: 0x1B9, size: 0x8, addend: 0x0, symName: __ZL5green, symObjAddr: 0x27678, symBinAddr: 0x100014010, symSize: 0x0 }
  - { offsetInCU: 0x1D2, offset: 0x1D2, size: 0x8, addend: 0x0, symName: __ZL4blue, symObjAddr: 0x27680, symBinAddr: 0x100014018, symSize: 0x0 }
  - { offsetInCU: 0x1EB, offset: 0x1EB, size: 0x8, addend: 0x0, symName: __ZL6yellow, symObjAddr: 0x27688, symBinAddr: 0x100014020, symSize: 0x0 }
  - { offsetInCU: 0x204, offset: 0x204, size: 0x8, addend: 0x0, symName: __ZL5black, symObjAddr: 0x27690, symBinAddr: 0x100014028, symSize: 0x0 }
  - { offsetInCU: 0x21D, offset: 0x21D, size: 0x8, addend: 0x0, symName: _model, symObjAddr: 0x27698, symBinAddr: 0x100014030, symSize: 0x0 }
  - { offsetInCU: 0x8771, offset: 0x8771, size: 0x8, addend: 0x0, symName: __ZNSt3__14swapB7v160006IiEENS_9enable_ifIXaasr21is_move_constructibleIT_EE5valuesr18is_move_assignableIS2_EE5valueEvE4typeERS2_S5_, symObjAddr: 0x1050, symBinAddr: 0x1000045E0, symSize: 0x30 }
  - { offsetInCU: 0x87C2, offset: 0x87C2, size: 0x8, addend: 0x0, symName: __ZNSt3__13maxB7v160006IfEERKT_S3_S3_, symObjAddr: 0x1260, symBinAddr: 0x1000047F0, symSize: 0x30 }
  - { offsetInCU: 0x8805, offset: 0x8805, size: 0x8, addend: 0x0, symName: __ZNSt3__13minB7v160006IfEERKT_S3_S3_, symObjAddr: 0x1290, symBinAddr: 0x100004820, symSize: 0x30 }
  - { offsetInCU: 0x8848, offset: 0x8848, size: 0x8, addend: 0x0, symName: __ZNSt3__14swapB7v160006I4Vec2IiEEENS_9enable_ifIXaasr21is_move_constructibleIT_EE5valuesr18is_move_assignableIS4_EE5valueEvE4typeERS4_S7_, symObjAddr: 0x1670, symBinAddr: 0x100004C00, symSize: 0x40 }
  - { offsetInCU: 0x8899, offset: 0x8899, size: 0x8, addend: 0x0, symName: __ZNSt3__118__debug_db_erase_cB7v160006INS_6vectorIiNS_9allocatorIiEEEEEEvPT_, symObjAddr: 0x1A50, symBinAddr: 0x100004FE0, symSize: 0x10 }
  - { offsetInCU: 0x88CA, offset: 0x88CA, size: 0x8, addend: 0x0, symName: __ZNSt3__112__to_addressB7v160006IiEEPT_S2_, symObjAddr: 0x1B60, symBinAddr: 0x1000050F0, symSize: 0x10 }
  - { offsetInCU: 0x88FF, offset: 0x88FF, size: 0x8, addend: 0x0, symName: __ZNSt3__119__libcpp_deallocateB7v160006EPvmm, symObjAddr: 0x1C70, symBinAddr: 0x100005200, symSize: 0x30 }
  - { offsetInCU: 0x8947, offset: 0x8947, size: 0x8, addend: 0x0, symName: __ZNSt3__127__do_deallocate_handle_sizeB7v160006IJEEEvPvmDpT_, symObjAddr: 0x1CA0, symBinAddr: 0x100005230, symSize: 0x20 }
  - { offsetInCU: 0x8985, offset: 0x8985, size: 0x8, addend: 0x0, symName: __ZNSt3__124__libcpp_operator_deleteB7v160006IJPvEEEvDpT_, symObjAddr: 0x1CC0, symBinAddr: 0x100005250, symSize: 0x20 }
  - { offsetInCU: 0x89BA, offset: 0x89BA, size: 0x8, addend: 0x0, symName: __ZNSt3__13minB7v160006IfNS_6__lessIffEEEERKT_S5_S5_T0_, symObjAddr: 0x1E90, symBinAddr: 0x100005420, symSize: 0x50 }
  - { offsetInCU: 0x8A4F, offset: 0x8A4F, size: 0x8, addend: 0x0, symName: __ZNSt3__13maxB7v160006IfNS_6__lessIffEEEERKT_S5_S5_T0_, symObjAddr: 0x1F10, symBinAddr: 0x1000054A0, symSize: 0x4D }
  - { offsetInCU: 0xB8B6, offset: 0xB8B6, size: 0x8, addend: 0x0, symName: __ZN8TGAColorC1Ehhhh, symObjAddr: 0x0, symBinAddr: 0x100003590, symSize: 0x50 }
  - { offsetInCU: 0xB918, offset: 0xB918, size: 0x8, addend: 0x0, symName: _main, symObjAddr: 0x50, symBinAddr: 0x1000035E0, symSize: 0x850 }
  - { offsetInCU: 0xBA86, offset: 0xBA86, size: 0x8, addend: 0x0, symName: __ZN4Vec3IfEC1Efff, symObjAddr: 0x8A0, symBinAddr: 0x100003E30, symSize: 0x40 }
  - { offsetInCU: 0xBAE4, offset: 0xBAE4, size: 0x8, addend: 0x0, symName: __ZNSt3__114numeric_limitsIfE3maxB7v160006Ev, symObjAddr: 0x8E0, symBinAddr: 0x100003E70, symSize: 0x10 }
  - { offsetInCU: 0xBAF8, offset: 0xBAF8, size: 0x8, addend: 0x0, symName: __ZN4Vec3IfEC1Ev, symObjAddr: 0x8F0, symBinAddr: 0x100003E80, symSize: 0x20 }
  - { offsetInCU: 0xBB22, offset: 0xBB22, size: 0x8, addend: 0x0, symName: __ZNSt3__16vectorIiNS_9allocatorIiEEEixB7v160006Em, symObjAddr: 0x910, symBinAddr: 0x100003EA0, symSize: 0x20 }
  - { offsetInCU: 0xBB59, offset: 0xBB59, size: 0x8, addend: 0x0, symName: __ZNK4Vec3IfEmiERKS0_, symObjAddr: 0x930, symBinAddr: 0x100003EC0, symSize: 0x70 }
  - { offsetInCU: 0xBB8D, offset: 0xBB8D, size: 0x8, addend: 0x0, symName: __ZNK4Vec3IfEeoERKS0_, symObjAddr: 0x9A0, symBinAddr: 0x100003F30, symSize: 0x90 }
  - { offsetInCU: 0xBBC1, offset: 0xBBC1, size: 0x8, addend: 0x0, symName: __ZN4Vec3IfE9normalizeEf, symObjAddr: 0xA30, symBinAddr: 0x100003FC0, symSize: 0x70 }
  - { offsetInCU: 0xBBF5, offset: 0xBBF5, size: 0x8, addend: 0x0, symName: __ZNK4Vec3IfEmlERKS0_, symObjAddr: 0xAA0, symBinAddr: 0x100004030, symSize: 0x50 }
  - { offsetInCU: 0xBC28, offset: 0xBC28, size: 0x8, addend: 0x0, symName: __Z8triangleP4Vec3IfEPfR8TGAImage8TGAColor, symObjAddr: 0xAF0, symBinAddr: 0x100004080, symSize: 0x3D0 }
  - { offsetInCU: 0xBCE2, offset: 0xBCE2, size: 0x8, addend: 0x0, symName: __ZNSt3__16vectorIiNS_9allocatorIiEEED1B7v160006Ev, symObjAddr: 0xEC0, symBinAddr: 0x100004450, symSize: 0x20 }
  - { offsetInCU: 0xBD0B, offset: 0xBD0B, size: 0x8, addend: 0x0, symName: __Z4lineiiiiR8TGAImage8TGAColor, symObjAddr: 0xEE0, symBinAddr: 0x100004470, symSize: 0x170 }
  - { offsetInCU: 0xBDD1, offset: 0xBDD1, size: 0x8, addend: 0x0, symName: __ZN8TGAColorC1ERKS_, symObjAddr: 0x1080, symBinAddr: 0x100004610, symSize: 0x30 }
  - { offsetInCU: 0xBE08, offset: 0xBE08, size: 0x8, addend: 0x0, symName: __Z11barycentricP4Vec3IfES0_, symObjAddr: 0x10B0, symBinAddr: 0x100004640, symSize: 0x160 }
  - { offsetInCU: 0xBE51, offset: 0xBE51, size: 0x8, addend: 0x0, symName: __Z3absB7v160006f, symObjAddr: 0x1210, symBinAddr: 0x1000047A0, symSize: 0x20 }
  - { offsetInCU: 0xBF89, offset: 0xBF89, size: 0x8, addend: 0x0, symName: __ZN4Vec2IfEC1Eff, symObjAddr: 0x1230, symBinAddr: 0x1000047C0, symSize: 0x30 }
  - { offsetInCU: 0xBFCE, offset: 0xBFCE, size: 0x8, addend: 0x0, symName: __Z8triangle4Vec2IiES0_S0_R8TGAImage8TGAColor, symObjAddr: 0x12C0, symBinAddr: 0x100004850, symSize: 0x3B0 }
  - { offsetInCU: 0xC0EC, offset: 0xC0EC, size: 0x8, addend: 0x0, symName: __Z9rasterize4Vec2IiES0_R8TGAImage8TGAColorPi, symObjAddr: 0x16B0, symBinAddr: 0x100004C40, symSize: 0x100 }
  - { offsetInCU: 0xC196, offset: 0xC196, size: 0x8, addend: 0x0, symName: __ZN8TGAColorC2Ehhhh, symObjAddr: 0x17B0, symBinAddr: 0x100004D40, symSize: 0x40 }
  - { offsetInCU: 0xC1F8, offset: 0xC1F8, size: 0x8, addend: 0x0, symName: __ZNSt3__123__libcpp_numeric_limitsIfLb1EE3maxB7v160006Ev, symObjAddr: 0x17F0, symBinAddr: 0x100004D80, symSize: 0x10 }
  - { offsetInCU: 0xC20C, offset: 0xC20C, size: 0x8, addend: 0x0, symName: __ZN8TGAColorC2ERKS_, symObjAddr: 0x1800, symBinAddr: 0x100004D90, symSize: 0x30 }
  - { offsetInCU: 0xC244, offset: 0xC244, size: 0x8, addend: 0x0, symName: __ZN4Vec3IfEC2Efff, symObjAddr: 0x1830, symBinAddr: 0x100004DC0, symSize: 0x40 }
  - { offsetInCU: 0xC298, offset: 0xC298, size: 0x8, addend: 0x0, symName: __ZNSt3__16vectorIiNS_9allocatorIiEEED2B7v160006Ev, symObjAddr: 0x1870, symBinAddr: 0x100004E00, symSize: 0x40 }
  - { offsetInCU: 0xC2C2, offset: 0xC2C2, size: 0x8, addend: 0x0, symName: __ZNSt3__16vectorIiNS_9allocatorIiEEE16__destroy_vectorC1ERS3_, symObjAddr: 0x18B0, symBinAddr: 0x100004E40, symSize: 0x30 }
  - { offsetInCU: 0xC2FB, offset: 0xC2FB, size: 0x8, addend: 0x0, symName: __ZNSt3__16vectorIiNS_9allocatorIiEEE16__destroy_vectorclB7v160006Ev, symObjAddr: 0x18F0, symBinAddr: 0x100004E80, symSize: 0x90 }
  - { offsetInCU: 0xC321, offset: 0xC321, size: 0x8, addend: 0x0, symName: __ZNSt3__16vectorIiNS_9allocatorIiEEE16__destroy_vectorC2ERS3_, symObjAddr: 0x1980, symBinAddr: 0x100004F10, symSize: 0x20 }
  - { offsetInCU: 0xC35A, offset: 0xC35A, size: 0x8, addend: 0x0, symName: __ZNKSt3__16vectorIiNS_9allocatorIiEEE17__annotate_deleteB7v160006Ev, symObjAddr: 0x19A0, symBinAddr: 0x100004F30, symSize: 0xB0 }
  - { offsetInCU: 0xC380, offset: 0xC380, size: 0x8, addend: 0x0, symName: __ZNSt3__16vectorIiNS_9allocatorIiEEE7__clearB7v160006Ev, symObjAddr: 0x1A60, symBinAddr: 0x100004FF0, symSize: 0x20 }
  - { offsetInCU: 0xC3A6, offset: 0xC3A6, size: 0x8, addend: 0x0, symName: __ZNSt3__116allocator_traitsINS_9allocatorIiEEE10deallocateB7v160006ERS2_Pim, symObjAddr: 0x1A80, symBinAddr: 0x100005010, symSize: 0x30 }
  - { offsetInCU: 0xC3E8, offset: 0xC3E8, size: 0x8, addend: 0x0, symName: __ZNSt3__16vectorIiNS_9allocatorIiEEE7__allocB7v160006Ev, symObjAddr: 0x1AB0, symBinAddr: 0x100005040, symSize: 0x20 }
  - { offsetInCU: 0xC40E, offset: 0xC40E, size: 0x8, addend: 0x0, symName: __ZNKSt3__16vectorIiNS_9allocatorIiEEE8capacityB7v160006Ev, symObjAddr: 0x1AD0, symBinAddr: 0x100005060, symSize: 0x30 }
  - { offsetInCU: 0xC434, offset: 0xC434, size: 0x8, addend: 0x0, symName: __ZNKSt3__16vectorIiNS_9allocatorIiEEE31__annotate_contiguous_containerB7v160006EPKvS5_S5_S5_, symObjAddr: 0x1B00, symBinAddr: 0x100005090, symSize: 0x20 }
  - { offsetInCU: 0xC48A, offset: 0xC48A, size: 0x8, addend: 0x0, symName: __ZNKSt3__16vectorIiNS_9allocatorIiEEE4dataB7v160006Ev, symObjAddr: 0x1B20, symBinAddr: 0x1000050B0, symSize: 0x20 }
  - { offsetInCU: 0xC4B0, offset: 0xC4B0, size: 0x8, addend: 0x0, symName: __ZNKSt3__16vectorIiNS_9allocatorIiEEE4sizeB7v160006Ev, symObjAddr: 0x1B40, symBinAddr: 0x1000050D0, symSize: 0x20 }
  - { offsetInCU: 0xC4D6, offset: 0xC4D6, size: 0x8, addend: 0x0, symName: __ZNSt3__16vectorIiNS_9allocatorIiEEE22__base_destruct_at_endB7v160006EPi, symObjAddr: 0x1B70, symBinAddr: 0x100005100, symSize: 0x80 }
  - { offsetInCU: 0xC51B, offset: 0xC51B, size: 0x8, addend: 0x0, symName: __ZNSt3__116allocator_traitsINS_9allocatorIiEEE7destroyB7v160006IivEEvRS2_PT_, symObjAddr: 0x1BF0, symBinAddr: 0x100005180, symSize: 0x30 }
  - { offsetInCU: 0xC558, offset: 0xC558, size: 0x8, addend: 0x0, symName: __ZNSt3__19allocatorIiE7destroyB7v160006EPi, symObjAddr: 0x1C20, symBinAddr: 0x1000051B0, symSize: 0x10 }
  - { offsetInCU: 0xC58C, offset: 0xC58C, size: 0x8, addend: 0x0, symName: __ZNSt3__19allocatorIiE10deallocateB7v160006EPim, symObjAddr: 0x1C30, symBinAddr: 0x1000051C0, symSize: 0x40 }
  - { offsetInCU: 0xC5CE, offset: 0xC5CE, size: 0x8, addend: 0x0, symName: __ZNSt3__117__compressed_pairIPiNS_9allocatorIiEEE6secondB7v160006Ev, symObjAddr: 0x1CE0, symBinAddr: 0x100005270, symSize: 0x20 }
  - { offsetInCU: 0xC5F4, offset: 0xC5F4, size: 0x8, addend: 0x0, symName: __ZNSt3__122__compressed_pair_elemINS_9allocatorIiEELi1ELb1EE5__getB7v160006Ev, symObjAddr: 0x1D00, symBinAddr: 0x100005290, symSize: 0x10 }
  - { offsetInCU: 0xC61A, offset: 0xC61A, size: 0x8, addend: 0x0, symName: __ZNKSt3__16vectorIiNS_9allocatorIiEEE9__end_capB7v160006Ev, symObjAddr: 0x1D10, symBinAddr: 0x1000052A0, symSize: 0x20 }
  - { offsetInCU: 0xC640, offset: 0xC640, size: 0x8, addend: 0x0, symName: __ZNKSt3__117__compressed_pairIPiNS_9allocatorIiEEE5firstB7v160006Ev, symObjAddr: 0x1D30, symBinAddr: 0x1000052C0, symSize: 0x20 }
  - { offsetInCU: 0xC666, offset: 0xC666, size: 0x8, addend: 0x0, symName: __ZNKSt3__122__compressed_pair_elemIPiLi0ELb0EE5__getB7v160006Ev, symObjAddr: 0x1D50, symBinAddr: 0x1000052E0, symSize: 0x10 }
  - { offsetInCU: 0xC68C, offset: 0xC68C, size: 0x8, addend: 0x0, symName: __ZN4Vec3IfEC2Ev, symObjAddr: 0x1D60, symBinAddr: 0x1000052F0, symSize: 0x30 }
  - { offsetInCU: 0xC6B6, offset: 0xC6B6, size: 0x8, addend: 0x0, symName: __ZNK4Vec3IfEmlEf, symObjAddr: 0x1D90, symBinAddr: 0x100005320, symSize: 0x60 }
  - { offsetInCU: 0xC6EA, offset: 0xC6EA, size: 0x8, addend: 0x0, symName: __ZNK4Vec3IfE4normEv, symObjAddr: 0x1DF0, symBinAddr: 0x100005380, symSize: 0x50 }
  - { offsetInCU: 0xC710, offset: 0xC710, size: 0x8, addend: 0x0, symName: __Z4sqrtB7v160006f, symObjAddr: 0x1E40, symBinAddr: 0x1000053D0, symSize: 0x20 }
  - { offsetInCU: 0xC73F, offset: 0xC73F, size: 0x8, addend: 0x0, symName: __ZN4Vec2IfEC2Eff, symObjAddr: 0x1E60, symBinAddr: 0x1000053F0, symSize: 0x30 }
  - { offsetInCU: 0xC799, offset: 0xC799, size: 0x8, addend: 0x0, symName: __ZNKSt3__16__lessIffEclB7v160006ERKfS3_, symObjAddr: 0x1EE0, symBinAddr: 0x100005470, symSize: 0x30 }
  - { offsetInCU: 0x7DBB, offset: 0x146FF, size: 0x8, addend: 0x0, symName: __ZNSt3__124__put_character_sequenceB7v160006IcNS_11char_traitsIcEEEERNS_13basic_ostreamIT_T0_EES7_PKS4_m, symObjAddr: 0x7470, symBinAddr: 0x10000C520, symSize: 0x1F0 }
  - { offsetInCU: 0xA222, offset: 0x16B66, size: 0x8, addend: 0x0, symName: __ZNSt3__17getlineB7v160006IcNS_11char_traitsIcEENS_9allocatorIcEEEERNS_13basic_istreamIT_T0_EES9_RNS_12basic_stringIS6_S7_T1_EE, symObjAddr: 0x8E0, symBinAddr: 0x100005EF0, symSize: 0x50 }
  - { offsetInCU: 0xA5C0, offset: 0x16F04, size: 0x8, addend: 0x0, symName: __ZNSt3__1rsB7v160006IcNS_11char_traitsIcEEEERNS_13basic_istreamIT_T0_EES7_RS4_, symObjAddr: 0xA60, symBinAddr: 0x100006070, symSize: 0x170 }
  - { offsetInCU: 0xA652, offset: 0x16F96, size: 0x8, addend: 0x0, symName: __ZNSt3__1lsB7v160006INS_11char_traitsIcEEEERNS_13basic_ostreamIcT_EES6_PKc, symObjAddr: 0xDC0, symBinAddr: 0x100006390, symSize: 0x40 }
  - { offsetInCU: 0xA699, offset: 0x16FDD, size: 0x8, addend: 0x0, symName: __ZNSt3__14endlB7v160006IcNS_11char_traitsIcEEEERNS_13basic_ostreamIT_T0_EES7_, symObjAddr: 0xE80, symBinAddr: 0x100006450, symSize: 0x50 }
  - { offsetInCU: 0xA6E5, offset: 0x17029, size: 0x8, addend: 0x0, symName: __ZNSt3__119__debug_db_insert_cB7v160006INS_12basic_stringIcNS_11char_traitsIcEENS_9allocatorIcEEEEEEvPT_, symObjAddr: 0x13D0, symBinAddr: 0x100006990, symSize: 0x10 }
  - { offsetInCU: 0xA716, offset: 0x1705A, size: 0x8, addend: 0x0, symName: __ZNSt3__112__to_addressB7v160006IKcEEPT_S3_, symObjAddr: 0x1520, symBinAddr: 0x100006AE0, symSize: 0x10 }
  - { offsetInCU: 0xA77E, offset: 0x170C2, size: 0x8, addend: 0x0, symName: __ZNSt3__119__debug_db_insert_cB7v160006INS_6vectorI4Vec3IfENS_9allocatorIS3_EEEEEEvPT_, symObjAddr: 0x16D0, symBinAddr: 0x100006C90, symSize: 0x10 }
  - { offsetInCU: 0xA7AF, offset: 0x170F3, size: 0x8, addend: 0x0, symName: __ZNSt3__119__debug_db_insert_cB7v160006INS_6vectorINS1_IiNS_9allocatorIiEEEENS2_IS4_EEEEEEvPT_, symObjAddr: 0x1820, symBinAddr: 0x100006DE0, symSize: 0x10 }
  - { offsetInCU: 0xA7E0, offset: 0x17124, size: 0x8, addend: 0x0, symName: __ZNSt3__118__debug_db_erase_cB7v160006INS_6vectorI4Vec3IfENS_9allocatorIS3_EEEEEEvPT_, symObjAddr: 0x1AB0, symBinAddr: 0x100007070, symSize: 0x10 }
  - { offsetInCU: 0xA811, offset: 0x17155, size: 0x8, addend: 0x0, symName: __ZNSt3__112__to_addressB7v160006I4Vec3IfEEEPT_S4_, symObjAddr: 0x1BB0, symBinAddr: 0x100007170, symSize: 0x10 }
  - { offsetInCU: 0xA846, offset: 0x1718A, size: 0x8, addend: 0x0, symName: __ZNSt3__118__debug_db_erase_cB7v160006INS_6vectorINS1_IiNS_9allocatorIiEEEENS2_IS4_EEEEEEvPT_, symObjAddr: 0x1F90, symBinAddr: 0x1000074E0, symSize: 0x10 }
  - { offsetInCU: 0xA877, offset: 0x171BB, size: 0x8, addend: 0x0, symName: __ZNSt3__112__to_addressB7v160006INS_6vectorIiNS_9allocatorIiEEEEEEPT_S6_, symObjAddr: 0x2090, symBinAddr: 0x1000075E0, symSize: 0x10 }
  - { offsetInCU: 0xA8AC, offset: 0x171F0, size: 0x8, addend: 0x0, symName: __ZNSt3__17getlineB7v160006IcNS_11char_traitsIcEENS_9allocatorIcEEEERNS_13basic_istreamIT_T0_EES9_RNS_12basic_stringIS6_S7_T1_EES6_, symObjAddr: 0x2390, symBinAddr: 0x1000078E0, symSize: 0x220 }
  - { offsetInCU: 0xA972, offset: 0x172B6, size: 0x8, addend: 0x0, symName: __ZNSt3__125__debug_db_invalidate_allB7v160006INS_12basic_stringIcNS_11char_traitsIcEENS_9allocatorIcEEEEEEvPT_, symObjAddr: 0x2960, symBinAddr: 0x100007EB0, symSize: 0x10 }
  - { offsetInCU: 0xABD8, offset: 0x1751C, size: 0x8, addend: 0x0, symName: __ZNSt3__19use_facetB7v160006INS_5ctypeIcEEEERKT_RKNS_6localeE, symObjAddr: 0x2BF0, symBinAddr: 0x100008140, symSize: 0x30 }
  - { offsetInCU: 0xB0A8, offset: 0x179EC, size: 0x8, addend: 0x0, symName: __ZNSt3__118__constexpr_strlenB7v160006EPKc, symObjAddr: 0x2CE0, symBinAddr: 0x100008230, symSize: 0x20 }
  - { offsetInCU: 0xB0D4, offset: 0x17A18, size: 0x8, addend: 0x0, symName: __ZNSt3__13maxB7v160006ImEERKT_S3_S3_, symObjAddr: 0x3490, symBinAddr: 0x1000089B0, symSize: 0x30 }
  - { offsetInCU: 0xB117, offset: 0x17A5B, size: 0x8, addend: 0x0, symName: __ZNSt3__13minB7v160006ImEERKT_S3_S3_, symObjAddr: 0x34C0, symBinAddr: 0x1000089E0, symSize: 0x30 }
  - { offsetInCU: 0xB35B, offset: 0x17C9F, size: 0x8, addend: 0x0, symName: __ZNSt3__13minB7v160006ImNS_6__lessImmEEEERKT_S5_S5_T0_, symObjAddr: 0x3540, symBinAddr: 0x100008A60, symSize: 0x50 }
  - { offsetInCU: 0xB3F0, offset: 0x17D34, size: 0x8, addend: 0x0, symName: __ZNSt3__120__throw_length_errorB7v160006EPKc, symObjAddr: 0x3620, symBinAddr: 0x100008B40, symSize: 0x70 }
  - { offsetInCU: 0xB419, offset: 0x17D5D, size: 0x8, addend: 0x0, symName: __ZNSt3__13maxB7v160006ImNS_6__lessImmEEEERKT_S5_S5_T0_, symObjAddr: 0x3700, symBinAddr: 0x100008C20, symSize: 0x50 }
  - { offsetInCU: 0xB473, offset: 0x17DB7, size: 0x8, addend: 0x0, symName: __ZNSt3__119__allocate_at_leastB7v160006INS_9allocatorI4Vec3IfEEEEENS_19__allocation_resultINS_16allocator_traitsIT_E7pointerEEERS7_m, symObjAddr: 0x3840, symBinAddr: 0x100008D60, symSize: 0x40 }
  - { offsetInCU: 0xB4B6, offset: 0x17DFA, size: 0x8, addend: 0x0, symName: __ZNSt3__117__libcpp_allocateB7v160006Emm, symObjAddr: 0x39B0, symBinAddr: 0x100008ED0, symSize: 0x20 }
  - { offsetInCU: 0xB4F4, offset: 0x17E38, size: 0x8, addend: 0x0, symName: __ZNSt3__121__libcpp_operator_newB7v160006IJmEEEPvDpT_, symObjAddr: 0x39D0, symBinAddr: 0x100008EF0, symSize: 0x20 }
  - { offsetInCU: 0xB52E, offset: 0x17E72, size: 0x8, addend: 0x0, symName: __ZNSt3__142__uninitialized_allocator_move_if_noexceptB7v160006INS_9allocatorI4Vec3IfEEENS_16reverse_iteratorIPS3_EES7_S3_vEET1_RT_T0_SB_S8_, symObjAddr: 0x3A50, symBinAddr: 0x100008F70, symSize: 0x70 }
  - { offsetInCU: 0xB5AC, offset: 0x17EF0, size: 0x8, addend: 0x0, symName: __ZNSt3__14swapB7v160006IP4Vec3IfEEENS_9enable_ifIXaasr21is_move_constructibleIT_EE5valuesr18is_move_assignableIS5_EE5valueEvE4typeERS5_S8_, symObjAddr: 0x3B10, symBinAddr: 0x100009030, symSize: 0x40 }
  - { offsetInCU: 0xB5FD, offset: 0x17F41, size: 0x8, addend: 0x0, symName: __ZNSt3__125__debug_db_invalidate_allB7v160006INS_6vectorI4Vec3IfENS_9allocatorIS3_EEEEEEvPT_, symObjAddr: 0x3BF0, symBinAddr: 0x100009110, symSize: 0x10 }
  - { offsetInCU: 0xB62E, offset: 0x17F72, size: 0x8, addend: 0x0, symName: __ZNSt3__14moveB7v160006INS_16reverse_iteratorIP4Vec3IfEEES5_EET0_T_S7_S6_, symObjAddr: 0x3C00, symBinAddr: 0x100009120, symSize: 0x80 }
  - { offsetInCU: 0xB688, offset: 0x17FCC, size: 0x8, addend: 0x0, symName: __ZNSt3__16__moveB7v160006INS_17_ClassicAlgPolicyENS_16reverse_iteratorIP4Vec3IfEEES6_S6_EENS_4pairIT0_T2_EES8_T1_S9_, symObjAddr: 0x3C80, symBinAddr: 0x1000091A0, symSize: 0x90 }
  - { offsetInCU: 0xB6F4, offset: 0x18038, size: 0x8, addend: 0x0, symName: __ZNSt3__123__dispatch_copy_or_moveB7v160006INS_17_ClassicAlgPolicyENS_11__move_loopIS1_EENS_14__move_trivialENS_16reverse_iteratorIP4Vec3IfEEES9_S9_EENS_4pairIT2_T4_EESB_T3_SC_, symObjAddr: 0x3D10, symBinAddr: 0x100009230, symSize: 0x90 }
  - { offsetInCU: 0xB772, offset: 0x180B6, size: 0x8, addend: 0x0, symName: __ZNSt3__121__unwrap_and_dispatchB7v160006INS_10__overloadINS_11__move_loopINS_17_ClassicAlgPolicyEEENS_14__move_trivialEEENS_16reverse_iteratorIP4Vec3IfEEESB_SB_Li0EEENS_4pairIT0_T2_EESD_T1_SE_, symObjAddr: 0x3DA0, symBinAddr: 0x1000092C0, symSize: 0x210 }
  - { offsetInCU: 0xB802, offset: 0x18146, size: 0x8, addend: 0x0, symName: __ZNSt3__114__unwrap_rangeB7v160006INS_16reverse_iteratorIP4Vec3IfEEES5_EENS_4pairIT0_S7_EET_S9_, symObjAddr: 0x3FB0, symBinAddr: 0x1000094D0, symSize: 0x90 }
  - { offsetInCU: 0xB9BC, offset: 0x18300, size: 0x8, addend: 0x0, symName: __ZNSt3__113__unwrap_iterB7v160006INS_16reverse_iteratorIP4Vec3IfEEENS_18__unwrap_iter_implIS5_Lb0EEELi0EEEDTclsrT0_8__unwrapclsr3stdE7declvalIT_EEEES9_, symObjAddr: 0x40E0, symBinAddr: 0x100009600, symSize: 0x40 }
  - { offsetInCU: 0xBA01, offset: 0x18345, size: 0x8, addend: 0x0, symName: __ZNSt3__19make_pairB7v160006INS_16reverse_iteratorIP4Vec3IfEEES5_EENS_4pairINS_18__unwrap_ref_decayIT_E4typeENS7_IT0_E4typeEEEOS8_OSB_, symObjAddr: 0x4120, symBinAddr: 0x100009640, symSize: 0x30 }
  - { offsetInCU: 0xBA51, offset: 0x18395, size: 0x8, addend: 0x0, symName: __ZNSt3__114__rewrap_rangeB7v160006INS_16reverse_iteratorIP4Vec3IfEEES5_EET_S6_T0_, symObjAddr: 0x4150, symBinAddr: 0x100009670, symSize: 0x60 }
  - { offsetInCU: 0xBA9D, offset: 0x183E1, size: 0x8, addend: 0x0, symName: __ZNSt3__113__rewrap_iterB7v160006INS_16reverse_iteratorIP4Vec3IfEEES5_NS_18__unwrap_iter_implIS5_Lb0EEEEET_S8_T0_, symObjAddr: 0x41B0, symBinAddr: 0x1000096D0, symSize: 0x70 }
  - { offsetInCU: 0xBAF2, offset: 0x18436, size: 0x8, addend: 0x0, symName: __ZNSt3__1neB7v160006IP4Vec3IfES3_EEbRKNS_16reverse_iteratorIT_EERKNS4_IT0_EE, symObjAddr: 0x4220, symBinAddr: 0x100009740, symSize: 0x40 }
  - { offsetInCU: 0xBC24, offset: 0x18568, size: 0x8, addend: 0x0, symName: __ZNSt3__119__debug_db_insert_cB7v160006INS_6vectorIiNS_9allocatorIiEEEEEEvPT_, symObjAddr: 0x4620, symBinAddr: 0x100009B40, symSize: 0x10 }
  - { offsetInCU: 0xBC55, offset: 0x18599, size: 0x8, addend: 0x0, symName: __ZNSt3__119__allocate_at_leastB7v160006INS_9allocatorIiEEEENS_19__allocation_resultINS_16allocator_traitsIT_E7pointerEEERS5_m, symObjAddr: 0x5240, symBinAddr: 0x10000A2F0, symSize: 0x40 }
  - { offsetInCU: 0xBC98, offset: 0x185DC, size: 0x8, addend: 0x0, symName: __ZNSt3__142__uninitialized_allocator_move_if_noexceptB7v160006INS_9allocatorIiEENS_16reverse_iteratorIPiEES5_ivEET1_RT_T0_S9_S6_, symObjAddr: 0x53D0, symBinAddr: 0x10000A480, symSize: 0x70 }
  - { offsetInCU: 0xBD16, offset: 0x1865A, size: 0x8, addend: 0x0, symName: __ZNSt3__14swapB7v160006IPiEENS_9enable_ifIXaasr21is_move_constructibleIT_EE5valuesr18is_move_assignableIS3_EE5valueEvE4typeERS3_S6_, symObjAddr: 0x5490, symBinAddr: 0x10000A540, symSize: 0x40 }
  - { offsetInCU: 0xBD67, offset: 0x186AB, size: 0x8, addend: 0x0, symName: __ZNSt3__125__debug_db_invalidate_allB7v160006INS_6vectorIiNS_9allocatorIiEEEEEEvPT_, symObjAddr: 0x5580, symBinAddr: 0x10000A630, symSize: 0x10 }
  - { offsetInCU: 0xBD98, offset: 0x186DC, size: 0x8, addend: 0x0, symName: __ZNSt3__14moveB7v160006INS_16reverse_iteratorIPiEES3_EET0_T_S5_S4_, symObjAddr: 0x5590, symBinAddr: 0x10000A640, symSize: 0x80 }
  - { offsetInCU: 0xBDF2, offset: 0x18736, size: 0x8, addend: 0x0, symName: __ZNSt3__16__moveB7v160006INS_17_ClassicAlgPolicyENS_16reverse_iteratorIPiEES4_S4_EENS_4pairIT0_T2_EES6_T1_S7_, symObjAddr: 0x5610, symBinAddr: 0x10000A6C0, symSize: 0x90 }
  - { offsetInCU: 0xBE5E, offset: 0x187A2, size: 0x8, addend: 0x0, symName: __ZNSt3__123__dispatch_copy_or_moveB7v160006INS_17_ClassicAlgPolicyENS_11__move_loopIS1_EENS_14__move_trivialENS_16reverse_iteratorIPiEES7_S7_EENS_4pairIT2_T4_EES9_T3_SA_, symObjAddr: 0x56A0, symBinAddr: 0x10000A750, symSize: 0x90 }
  - { offsetInCU: 0xBEDC, offset: 0x18820, size: 0x8, addend: 0x0, symName: __ZNSt3__121__unwrap_and_dispatchB7v160006INS_10__overloadINS_11__move_loopINS_17_ClassicAlgPolicyEEENS_14__move_trivialEEENS_16reverse_iteratorIPiEES9_S9_Li0EEENS_4pairIT0_T2_EESB_T1_SC_, symObjAddr: 0x5730, symBinAddr: 0x10000A7E0, symSize: 0x210 }
  - { offsetInCU: 0xBF6C, offset: 0x188B0, size: 0x8, addend: 0x0, symName: __ZNSt3__114__unwrap_rangeB7v160006INS_16reverse_iteratorIPiEES3_EENS_4pairIT0_S5_EET_S7_, symObjAddr: 0x5940, symBinAddr: 0x10000A9F0, symSize: 0x90 }
  - { offsetInCU: 0xC08C, offset: 0x189D0, size: 0x8, addend: 0x0, symName: __ZNSt3__113__unwrap_iterB7v160006INS_16reverse_iteratorIPiEENS_18__unwrap_iter_implIS3_Lb0EEELi0EEEDTclsrT0_8__unwrapclsr3stdE7declvalIT_EEEES7_, symObjAddr: 0x5A70, symBinAddr: 0x10000AB20, symSize: 0x40 }
  - { offsetInCU: 0xC0D1, offset: 0x18A15, size: 0x8, addend: 0x0, symName: __ZNSt3__19make_pairB7v160006INS_16reverse_iteratorIPiEES3_EENS_4pairINS_18__unwrap_ref_decayIT_E4typeENS5_IT0_E4typeEEEOS6_OS9_, symObjAddr: 0x5AB0, symBinAddr: 0x10000AB60, symSize: 0x30 }
  - { offsetInCU: 0xC121, offset: 0x18A65, size: 0x8, addend: 0x0, symName: __ZNSt3__114__rewrap_rangeB7v160006INS_16reverse_iteratorIPiEES3_EET_S4_T0_, symObjAddr: 0x5AE0, symBinAddr: 0x10000AB90, symSize: 0x60 }
  - { offsetInCU: 0xC16D, offset: 0x18AB1, size: 0x8, addend: 0x0, symName: __ZNSt3__113__rewrap_iterB7v160006INS_16reverse_iteratorIPiEES3_NS_18__unwrap_iter_implIS3_Lb0EEEEET_S6_T0_, symObjAddr: 0x5B40, symBinAddr: 0x10000ABF0, symSize: 0x70 }
  - { offsetInCU: 0xC1C2, offset: 0x18B06, size: 0x8, addend: 0x0, symName: __ZNSt3__1neB7v160006IPiS1_EEbRKNS_16reverse_iteratorIT_EERKNS2_IT0_EE, symObjAddr: 0x5BB0, symBinAddr: 0x10000AC60, symSize: 0x40 }
  - { offsetInCU: 0xC27B, offset: 0x18BBF, size: 0x8, addend: 0x0, symName: __ZNSt3__119__allocate_at_leastB7v160006INS_9allocatorINS_6vectorIiNS1_IiEEEEEEEENS_19__allocation_resultINS_16allocator_traitsIT_E7pointerEEERS8_m, symObjAddr: 0x6600, symBinAddr: 0x10000B6B0, symSize: 0x40 }
  - { offsetInCU: 0xC2BE, offset: 0x18C02, size: 0x8, addend: 0x0, symName: __ZNSt3__142__uninitialized_allocator_move_if_noexceptB7v160006INS_9allocatorINS_6vectorIiNS1_IiEEEEEENS_16reverse_iteratorIPS4_EES8_S8_EET2_RT_T0_T1_S9_, symObjAddr: 0x6790, symBinAddr: 0x10000B840, symSize: 0x180 }
  - { offsetInCU: 0xC360, offset: 0x18CA4, size: 0x8, addend: 0x0, symName: __ZNSt3__14swapB7v160006IPNS_6vectorIiNS_9allocatorIiEEEEEENS_9enable_ifIXaasr21is_move_constructibleIT_EE5valuesr18is_move_assignableIS7_EE5valueEvE4typeERS7_SA_, symObjAddr: 0x6960, symBinAddr: 0x10000BA10, symSize: 0x40 }
  - { offsetInCU: 0xC3B1, offset: 0x18CF5, size: 0x8, addend: 0x0, symName: __ZNSt3__125__debug_db_invalidate_allB7v160006INS_6vectorINS1_IiNS_9allocatorIiEEEENS2_IS4_EEEEEEvPT_, symObjAddr: 0x6A40, symBinAddr: 0x10000BAF0, symSize: 0x10 }
  - { offsetInCU: 0xC3E2, offset: 0x18D26, size: 0x8, addend: 0x0, symName: __ZNSt3__122__make_exception_guardB7v160006INS_29_AllocatorDestroyRangeReverseINS_9allocatorINS_6vectorIiNS2_IiEEEEEENS_16reverse_iteratorIPS5_EEEEEENS_28__exception_guard_exceptionsIT_EESC_, symObjAddr: 0x6A50, symBinAddr: 0x10000BB00, symSize: 0x60 }
  - { offsetInCU: 0xC417, offset: 0x18D5B, size: 0x8, addend: 0x0, symName: __ZNSt3__1neB7v160006IPNS_6vectorIiNS_9allocatorIiEEEES5_EEbRKNS_16reverse_iteratorIT_EERKNS6_IT0_EE, symObjAddr: 0x6AF0, symBinAddr: 0x10000BBA0, symSize: 0x40 }
  - { offsetInCU: 0xC463, offset: 0x18DA7, size: 0x8, addend: 0x0, symName: __ZNSt3__112__to_addressB7v160006INS_16reverse_iteratorIPNS_6vectorIiNS_9allocatorIiEEEEEEvEENS_5decayIDTclsr19__to_address_helperIT_EE6__callclsr3stdE7declvalIRKS9_EEEEE4typeESB_, symObjAddr: 0x6B60, symBinAddr: 0x10000BC10, symSize: 0x20 }
  - { offsetInCU: 0xC499, offset: 0x18DDD, size: 0x8, addend: 0x0, symName: __ZNSt3__115__debug_db_swapB7v160006INS_6vectorIiNS_9allocatorIiEEEEEEvPT_S6_, symObjAddr: 0x6E30, symBinAddr: 0x10000BEE0, symSize: 0x10 }
  - { offsetInCU: 0xC502, offset: 0x18E46, size: 0x8, addend: 0x0, symName: __ZNSt3__119__allocator_destroyB7v160006INS_9allocatorINS_6vectorIiNS1_IiEEEEEENS_16reverse_iteratorINS6_IPS4_EEEES9_EEvRT_T0_T1_, symObjAddr: 0x7020, symBinAddr: 0x10000C0D0, symSize: 0x70 }
  - { offsetInCU: 0xC565, offset: 0x18EA9, size: 0x8, addend: 0x0, symName: __ZNSt3__1neB7v160006INS_16reverse_iteratorIPNS_6vectorIiNS_9allocatorIiEEEEEES7_EEbRKNS1_IT_EERKNS1_IT0_EE, symObjAddr: 0x70C0, symBinAddr: 0x10000C170, symSize: 0x50 }
  - { offsetInCU: 0xC5B1, offset: 0x18EF5, size: 0x8, addend: 0x0, symName: __ZNSt3__112__to_addressB7v160006INS_16reverse_iteratorINS1_IPNS_6vectorIiNS_9allocatorIiEEEEEEEEvEENS_5decayIDTclsr19__to_address_helperIT_EE6__callclsr3stdE7declvalIRKSA_EEEEE4typeESC_, symObjAddr: 0x7110, symBinAddr: 0x10000C1C0, symSize: 0x20 }
  - { offsetInCU: 0xC611, offset: 0x18F55, size: 0x8, addend: 0x0, symName: __ZNSt3__116__pad_and_outputB7v160006IcNS_11char_traitsIcEEEENS_19ostreambuf_iteratorIT_T0_EES6_PKS4_S8_S8_RNS_8ios_baseES4_, symObjAddr: 0x7680, symBinAddr: 0x10000C730, symSize: 0x220 }
  - { offsetInCU: 0xC6E7, offset: 0x1902B, size: 0x8, addend: 0x0, symName: __ZNSt3__122__make_exception_guardB7v160006INS_6vectorIiNS_9allocatorIiEEE16__destroy_vectorEEENS_28__exception_guard_exceptionsIT_EES7_, symObjAddr: 0x7BF0, symBinAddr: 0x10000CCA0, symSize: 0x40 }
  - { offsetInCU: 0xC71C, offset: 0x19060, size: 0x8, addend: 0x0, symName: __ZNSt3__130__uninitialized_allocator_copyB7v160006INS_9allocatorIiEEPiS3_S3_EET2_RT_T0_T1_S4_, symObjAddr: 0x7DF0, symBinAddr: 0x10000CEA0, symSize: 0x100 }
  - { offsetInCU: 0xC7BD, offset: 0x19101, size: 0x8, addend: 0x0, symName: __ZNSt3__122__make_exception_guardB7v160006INS_29_AllocatorDestroyRangeReverseINS_9allocatorIiEEPiEEEENS_28__exception_guard_exceptionsIT_EES7_, symObjAddr: 0x7EF0, symBinAddr: 0x10000CFA0, symSize: 0x60 }
  - { offsetInCU: 0xC7F2, offset: 0x19136, size: 0x8, addend: 0x0, symName: __ZNSt3__119__allocator_destroyB7v160006INS_9allocatorIiEENS_16reverse_iteratorIPiEES5_EEvRT_T0_T1_, symObjAddr: 0x8170, symBinAddr: 0x10000D220, symSize: 0x70 }
  - { offsetInCU: 0xC855, offset: 0x19199, size: 0x8, addend: 0x0, symName: __ZNSt3__112__to_addressB7v160006INS_16reverse_iteratorIPiEEvEENS_5decayIDTclsr19__to_address_helperIT_EE6__callclsr3stdE7declvalIRKS5_EEEEE4typeES7_, symObjAddr: 0x81E0, symBinAddr: 0x10000D290, symSize: 0x20 }
  - { offsetInCU: 0xCB25, offset: 0x19469, size: 0x8, addend: 0x0, symName: __ZSt28__throw_bad_array_new_lengthB7v160006v, symObjAddr: 0x3970, symBinAddr: 0x100008E90, symSize: 0x40 }
  - { offsetInCU: 0xD1FD, offset: 0x19B41, size: 0x8, addend: 0x0, symName: __ZNSt3__16vectorI4Vec3IfENS_9allocatorIS2_EEE26__swap_out_circular_bufferERNS_14__split_bufferIS2_RS4_EE, symObjAddr: 0x32C0, symBinAddr: 0x1000087E0, symSize: 0x130 }
  - { offsetInCU: 0xD259, offset: 0x19B9D, size: 0x8, addend: 0x0, symName: __ZNSt3__16vectorIiNS_9allocatorIiEEE26__swap_out_circular_bufferERNS_14__split_bufferIiRS2_EE, symObjAddr: 0x4EE0, symBinAddr: 0x100009F90, symSize: 0x130 }
  - { offsetInCU: 0xD2B0, offset: 0x19BF4, size: 0x8, addend: 0x0, symName: __ZNSt3__16vectorINS0_IiNS_9allocatorIiEEEENS1_IS3_EEE26__swap_out_circular_bufferERNS_14__split_bufferIS3_RS4_EE, symObjAddr: 0x62B0, symBinAddr: 0x10000B360, symSize: 0x130 }
  - { offsetInCU: 0xF275, offset: 0x1BBB9, size: 0x8, addend: 0x0, symName: __ZN5ModelC2EPKc, symObjAddr: 0x0, symBinAddr: 0x100005610, symSize: 0x760 }
  - { offsetInCU: 0xF3BD, offset: 0x1BD01, size: 0x8, addend: 0x0, symName: __ZNSt3__16vectorI4Vec3IfENS_9allocatorIS2_EEEC1B7v160006Ev, symObjAddr: 0x760, symBinAddr: 0x100005D70, symSize: 0x20 }
  - { offsetInCU: 0xF3E7, offset: 0x1BD2B, size: 0x8, addend: 0x0, symName: __ZNSt3__16vectorINS0_IiNS_9allocatorIiEEEENS1_IS3_EEEC1B7v160006Ev, symObjAddr: 0x780, symBinAddr: 0x100005D90, symSize: 0x20 }
  - { offsetInCU: 0xF4EC, offset: 0x1BE30, size: 0x8, addend: 0x0, symName: __ZNSt3__114basic_ifstreamIcNS_11char_traitsIcEEEC1Ev, symObjAddr: 0x7A0, symBinAddr: 0x100005DB0, symSize: 0xE0 }
  - { offsetInCU: 0xF518, offset: 0x1BE5C, size: 0x8, addend: 0x0, symName: __ZNKSt3__19basic_iosIcNS_11char_traitsIcEEE4failB7v160006Ev, symObjAddr: 0x880, symBinAddr: 0x100005E90, symSize: 0x20 }
  - { offsetInCU: 0xF53E, offset: 0x1BE82, size: 0x8, addend: 0x0, symName: __ZNSt3__112basic_stringIcNS_11char_traitsIcEENS_9allocatorIcEEEC1B7v160006Ev, symObjAddr: 0x8A0, symBinAddr: 0x100005EB0, symSize: 0x20 }
  - { offsetInCU: 0xF568, offset: 0x1BEAC, size: 0x8, addend: 0x0, symName: __ZNKSt3__19basic_iosIcNS_11char_traitsIcEEE3eofB7v160006Ev, symObjAddr: 0x8C0, symBinAddr: 0x100005ED0, symSize: 0x20 }
  - { offsetInCU: 0xF58E, offset: 0x1BED2, size: 0x8, addend: 0x0, symName: __ZNKSt3__112basic_stringIcNS_11char_traitsIcEENS_9allocatorIcEEE5c_strB7v160006Ev, symObjAddr: 0x930, symBinAddr: 0x100005F40, symSize: 0x20 }
  - { offsetInCU: 0xF5B9, offset: 0x1BEFD, size: 0x8, addend: 0x0, symName: __ZNSt3__112basic_stringIcNS_11char_traitsIcEENS_9allocatorIcEEEC1B7v160006IDnEEPKc, symObjAddr: 0x950, symBinAddr: 0x100005F60, symSize: 0x30 }
  - { offsetInCU: 0xF647, offset: 0x1BF8B, size: 0x8, addend: 0x0, symName: __ZNSt3__119basic_istringstreamIcNS_11char_traitsIcEENS_9allocatorIcEEEC1B7v160006ERKNS_12basic_stringIcS2_S4_EEj, symObjAddr: 0x980, symBinAddr: 0x100005F90, symSize: 0xE0 }
  - { offsetInCU: 0xF68E, offset: 0x1BFD2, size: 0x8, addend: 0x0, symName: __ZNSt3__16vectorI4Vec3IfENS_9allocatorIS2_EEE9push_backB7v160006ERKS2_, symObjAddr: 0xBF0, symBinAddr: 0x1000061E0, symSize: 0x60 }
  - { offsetInCU: 0xF6C6, offset: 0x1C00A, size: 0x8, addend: 0x0, symName: __ZNSt3__16vectorIiNS_9allocatorIiEEEC1B7v160006Ev, symObjAddr: 0xC50, symBinAddr: 0x100006240, symSize: 0x20 }
  - { offsetInCU: 0xF6F0, offset: 0x1C034, size: 0x8, addend: 0x0, symName: __ZNKSt3__19basic_iosIcNS_11char_traitsIcEEEcvbB7v160006Ev, symObjAddr: 0xC70, symBinAddr: 0x100006260, symSize: 0x30 }
  - { offsetInCU: 0xF715, offset: 0x1C059, size: 0x8, addend: 0x0, symName: __ZNSt3__16vectorIiNS_9allocatorIiEEE9push_backB7v160006ERKi, symObjAddr: 0xCA0, symBinAddr: 0x100006290, symSize: 0x60 }
  - { offsetInCU: 0xF74C, offset: 0x1C090, size: 0x8, addend: 0x0, symName: __ZNSt3__16vectorINS0_IiNS_9allocatorIiEEEENS1_IS3_EEE9push_backB7v160006ERKS3_, symObjAddr: 0xD00, symBinAddr: 0x1000062F0, symSize: 0x60 }
  - { offsetInCU: 0xF789, offset: 0x1C0CD, size: 0x8, addend: 0x0, symName: __ZNSt3__119basic_istringstreamIcNS_11char_traitsIcEENS_9allocatorIcEEED1Ev, symObjAddr: 0xD80, symBinAddr: 0x100006350, symSize: 0x40 }
  - { offsetInCU: 0xF7B6, offset: 0x1C0FA, size: 0x8, addend: 0x0, symName: __ZNKSt3__16vectorI4Vec3IfENS_9allocatorIS2_EEE4sizeB7v160006Ev, symObjAddr: 0xE00, symBinAddr: 0x1000063D0, symSize: 0x30 }
  - { offsetInCU: 0xF7DC, offset: 0x1C120, size: 0x8, addend: 0x0, symName: __ZNKSt3__16vectorINS0_IiNS_9allocatorIiEEEENS1_IS3_EEE4sizeB7v160006Ev, symObjAddr: 0xE30, symBinAddr: 0x100006400, symSize: 0x30 }
  - { offsetInCU: 0xF802, offset: 0x1C146, size: 0x8, addend: 0x0, symName: __ZNSt3__113basic_ostreamIcNS_11char_traitsIcEEElsB7v160006EPFRS3_S4_E, symObjAddr: 0xE60, symBinAddr: 0x100006430, symSize: 0x20 }
  - { offsetInCU: 0xF83B, offset: 0x1C17F, size: 0x8, addend: 0x0, symName: __ZNSt3__114basic_ifstreamIcNS_11char_traitsIcEEED1Ev, symObjAddr: 0xED0, symBinAddr: 0x1000064A0, symSize: 0x40 }
  - { offsetInCU: 0xF868, offset: 0x1C1AC, size: 0x8, addend: 0x0, symName: __ZNSt3__16vectorINS0_IiNS_9allocatorIiEEEENS1_IS3_EEED1B7v160006Ev, symObjAddr: 0xF10, symBinAddr: 0x1000064E0, symSize: 0x20 }
  - { offsetInCU: 0xF892, offset: 0x1C1D6, size: 0x8, addend: 0x0, symName: __ZNSt3__16vectorI4Vec3IfENS_9allocatorIS2_EEED1B7v160006Ev, symObjAddr: 0xF30, symBinAddr: 0x100006500, symSize: 0x20 }
  - { offsetInCU: 0xF8BC, offset: 0x1C200, size: 0x8, addend: 0x0, symName: __ZN5ModelC1EPKc, symObjAddr: 0xF50, symBinAddr: 0x100006520, symSize: 0x30 }
  - { offsetInCU: 0xF8F6, offset: 0x1C23A, size: 0x8, addend: 0x0, symName: __ZN5ModelD2Ev, symObjAddr: 0xF80, symBinAddr: 0x100006550, symSize: 0x50 }
  - { offsetInCU: 0xF922, offset: 0x1C266, size: 0x8, addend: 0x0, symName: __ZN5ModelD1Ev, symObjAddr: 0xFD0, symBinAddr: 0x1000065A0, symSize: 0x20 }
  - { offsetInCU: 0xF94E, offset: 0x1C292, size: 0x8, addend: 0x0, symName: __ZN5Model6nvertsEv, symObjAddr: 0xFF0, symBinAddr: 0x1000065C0, symSize: 0x20 }
  - { offsetInCU: 0xF976, offset: 0x1C2BA, size: 0x8, addend: 0x0, symName: __ZN5Model6nfacesEv, symObjAddr: 0x1010, symBinAddr: 0x1000065E0, symSize: 0x20 }
  - { offsetInCU: 0xF99E, offset: 0x1C2E2, size: 0x8, addend: 0x0, symName: __ZN5Model4faceEi, symObjAddr: 0x1030, symBinAddr: 0x100006600, symSize: 0x50 }
  - { offsetInCU: 0xF9D3, offset: 0x1C317, size: 0x8, addend: 0x0, symName: __ZNSt3__16vectorINS0_IiNS_9allocatorIiEEEENS1_IS3_EEEixB7v160006Em, symObjAddr: 0x1080, symBinAddr: 0x100006650, symSize: 0x20 }
  - { offsetInCU: 0xFA0B, offset: 0x1C34F, size: 0x8, addend: 0x0, symName: __ZNSt3__16vectorIiNS_9allocatorIiEEEC1ERKS3_, symObjAddr: 0x10A0, symBinAddr: 0x100006670, symSize: 0x30 }
  - { offsetInCU: 0xFA46, offset: 0x1C38A, size: 0x8, addend: 0x0, symName: __ZN5Model8faces_vtEi, symObjAddr: 0x10D0, symBinAddr: 0x1000066A0, symSize: 0x50 }
  - { offsetInCU: 0xFA7C, offset: 0x1C3C0, size: 0x8, addend: 0x0, symName: __ZN5Model4vertEi, symObjAddr: 0x1120, symBinAddr: 0x1000066F0, symSize: 0x50 }
  - { offsetInCU: 0xFAB1, offset: 0x1C3F5, size: 0x8, addend: 0x0, symName: __ZNSt3__16vectorI4Vec3IfENS_9allocatorIS2_EEEixB7v160006Em, symObjAddr: 0x1170, symBinAddr: 0x100006740, symSize: 0x20 }
  - { offsetInCU: 0xFAE9, offset: 0x1C42D, size: 0x8, addend: 0x0, symName: __ZN5Model12texture_vertEi, symObjAddr: 0x1190, symBinAddr: 0x100006760, symSize: 0x50 }
  - { offsetInCU: 0xFB1F, offset: 0x1C463, size: 0x8, addend: 0x0, symName: __ZNSt3__119basic_istringstreamIcNS_11char_traitsIcEENS_9allocatorIcEEED2Ev, symObjAddr: 0x11E0, symBinAddr: 0x1000067B0, symSize: 0x60 }
  - { offsetInCU: 0xFB59, offset: 0x1C49D, size: 0x8, addend: 0x0, symName: __ZTv0_n24_NSt3__119basic_istringstreamIcNS_11char_traitsIcEENS_9allocatorIcEEED1Ev, symObjAddr: 0x1240, symBinAddr: 0x100006810, symSize: 0x20 }
  - { offsetInCU: 0xFB75, offset: 0x1C4B9, size: 0x8, addend: 0x0, symName: __ZNSt3__115basic_stringbufIcNS_11char_traitsIcEENS_9allocatorIcEEED1Ev, symObjAddr: 0x1260, symBinAddr: 0x100006830, symSize: 0x20 }
  - { offsetInCU: 0xFBA2, offset: 0x1C4E6, size: 0x8, addend: 0x0, symName: __ZNSt3__115basic_stringbufIcNS_11char_traitsIcEENS_9allocatorIcEEED2Ev, symObjAddr: 0x1280, symBinAddr: 0x100006850, symSize: 0x40 }
  - { offsetInCU: 0xFBCF, offset: 0x1C513, size: 0x8, addend: 0x0, symName: __ZNSt3__114basic_ifstreamIcNS_11char_traitsIcEEED2Ev, symObjAddr: 0x12C0, symBinAddr: 0x100006890, symSize: 0x60 }
  - { offsetInCU: 0xFC09, offset: 0x1C54D, size: 0x8, addend: 0x0, symName: __ZTv0_n24_NSt3__114basic_ifstreamIcNS_11char_traitsIcEEED1Ev, symObjAddr: 0x1320, symBinAddr: 0x1000068F0, symSize: 0x20 }
  - { offsetInCU: 0xFC20, offset: 0x1C564, size: 0x8, addend: 0x0, symName: __ZNSt3__112basic_stringIcNS_11char_traitsIcEENS_9allocatorIcEEEC2B7v160006Ev, symObjAddr: 0x1340, symBinAddr: 0x100006910, symSize: 0x50 }
  - { offsetInCU: 0xFC4F, offset: 0x1C593, size: 0x8, addend: 0x0, symName: __ZNSt3__117__compressed_pairINS_12basic_stringIcNS_11char_traitsIcEENS_9allocatorIcEEE5__repES5_EC1B7v160006INS_18__default_init_tagESA_EEOT_OT0_, symObjAddr: 0x1390, symBinAddr: 0x100006960, symSize: 0x30 }
  - { offsetInCU: 0xFCA7, offset: 0x1C5EB, size: 0x8, addend: 0x0, symName: __ZNSt3__112basic_stringIcNS_11char_traitsIcEENS_9allocatorIcEEE14__default_initB7v160006Ev, symObjAddr: 0x13E0, symBinAddr: 0x1000069A0, symSize: 0x50 }
  - { offsetInCU: 0xFCCD, offset: 0x1C611, size: 0x8, addend: 0x0, symName: __ZNSt3__117__compressed_pairINS_12basic_stringIcNS_11char_traitsIcEENS_9allocatorIcEEE5__repES5_EC2B7v160006INS_18__default_init_tagESA_EEOT_OT0_, symObjAddr: 0x1430, symBinAddr: 0x1000069F0, symSize: 0x30 }
  - { offsetInCU: 0xFD25, offset: 0x1C669, size: 0x8, addend: 0x0, symName: __ZNSt3__122__compressed_pair_elemINS_12basic_stringIcNS_11char_traitsIcEENS_9allocatorIcEEE5__repELi0ELb0EEC2B7v160006ENS_18__default_init_tagE, symObjAddr: 0x1460, symBinAddr: 0x100006A20, symSize: 0x10 }
  - { offsetInCU: 0xFD5A, offset: 0x1C69E, size: 0x8, addend: 0x0, symName: __ZNSt3__122__compressed_pair_elemINS_9allocatorIcEELi1ELb1EEC2B7v160006ENS_18__default_init_tagE, symObjAddr: 0x1470, symBinAddr: 0x100006A30, symSize: 0x20 }
  - { offsetInCU: 0xFD8F, offset: 0x1C6D3, size: 0x8, addend: 0x0, symName: __ZNSt3__19allocatorIcEC2B7v160006Ev, symObjAddr: 0x1490, symBinAddr: 0x100006A50, symSize: 0x20 }
  - { offsetInCU: 0xFDB9, offset: 0x1C6FD, size: 0x8, addend: 0x0, symName: __ZNSt3__116__non_trivial_ifILb1ENS_9allocatorIcEEEC2B7v160006Ev, symObjAddr: 0x14B0, symBinAddr: 0x100006A70, symSize: 0x10 }
  - { offsetInCU: 0xFDE3, offset: 0x1C727, size: 0x8, addend: 0x0, symName: __ZNSt3__117__compressed_pairINS_12basic_stringIcNS_11char_traitsIcEENS_9allocatorIcEEE5__repES5_E5firstB7v160006Ev, symObjAddr: 0x14C0, symBinAddr: 0x100006A80, symSize: 0x20 }
  - { offsetInCU: 0xFE09, offset: 0x1C74D, size: 0x8, addend: 0x0, symName: __ZNSt3__122__compressed_pair_elemINS_12basic_stringIcNS_11char_traitsIcEENS_9allocatorIcEEE5__repELi0ELb0EE5__getB7v160006Ev, symObjAddr: 0x14E0, symBinAddr: 0x100006AA0, symSize: 0x10 }
  - { offsetInCU: 0xFE2F, offset: 0x1C773, size: 0x8, addend: 0x0, symName: __ZNKSt3__112basic_stringIcNS_11char_traitsIcEENS_9allocatorIcEEE4dataB7v160006Ev, symObjAddr: 0x14F0, symBinAddr: 0x100006AB0, symSize: 0x30 }
  - { offsetInCU: 0xFE55, offset: 0x1C799, size: 0x8, addend: 0x0, symName: __ZNKSt3__112basic_stringIcNS_11char_traitsIcEENS_9allocatorIcEEE13__get_pointerB7v160006Ev, symObjAddr: 0x1530, symBinAddr: 0x100006AF0, symSize: 0x50 }
  - { offsetInCU: 0xFE7B, offset: 0x1C7BF, size: 0x8, addend: 0x0, symName: __ZNKSt3__112basic_stringIcNS_11char_traitsIcEENS_9allocatorIcEEE9__is_longB7v160006Ev, symObjAddr: 0x1580, symBinAddr: 0x100006B40, symSize: 0x30 }
  - { offsetInCU: 0xFEA1, offset: 0x1C7E5, size: 0x8, addend: 0x0, symName: __ZNKSt3__112basic_stringIcNS_11char_traitsIcEENS_9allocatorIcEEE18__get_long_pointerB7v160006Ev, symObjAddr: 0x15B0, symBinAddr: 0x100006B70, symSize: 0x20 }
  - { offsetInCU: 0xFEC7, offset: 0x1C80B, size: 0x8, addend: 0x0, symName: __ZNKSt3__112basic_stringIcNS_11char_traitsIcEENS_9allocatorIcEEE19__get_short_pointerB7v160006Ev, symObjAddr: 0x15D0, symBinAddr: 0x100006B90, symSize: 0x30 }
  - { offsetInCU: 0xFEED, offset: 0x1C831, size: 0x8, addend: 0x0, symName: __ZNKSt3__117__compressed_pairINS_12basic_stringIcNS_11char_traitsIcEENS_9allocatorIcEEE5__repES5_E5firstB7v160006Ev, symObjAddr: 0x1600, symBinAddr: 0x100006BC0, symSize: 0x20 }
  - { offsetInCU: 0xFF13, offset: 0x1C857, size: 0x8, addend: 0x0, symName: __ZNKSt3__122__compressed_pair_elemINS_12basic_stringIcNS_11char_traitsIcEENS_9allocatorIcEEE5__repELi0ELb0EE5__getB7v160006Ev, symObjAddr: 0x1620, symBinAddr: 0x100006BE0, symSize: 0x10 }
  - { offsetInCU: 0xFF39, offset: 0x1C87D, size: 0x8, addend: 0x0, symName: __ZNSt3__114pointer_traitsIPKcE10pointer_toB7v160006ERS1_, symObjAddr: 0x1630, symBinAddr: 0x100006BF0, symSize: 0x10 }
  - { offsetInCU: 0xFF5C, offset: 0x1C8A0, size: 0x8, addend: 0x0, symName: __ZNSt3__16vectorI4Vec3IfENS_9allocatorIS2_EEEC2B7v160006Ev, symObjAddr: 0x1640, symBinAddr: 0x100006C00, symSize: 0x60 }
  - { offsetInCU: 0xFF8B, offset: 0x1C8CF, size: 0x8, addend: 0x0, symName: __ZNSt3__117__compressed_pairIP4Vec3IfENS_9allocatorIS2_EEEC1B7v160006IDnNS_18__default_init_tagEEEOT_OT0_, symObjAddr: 0x16A0, symBinAddr: 0x100006C60, symSize: 0x30 }
  - { offsetInCU: 0xFFE3, offset: 0x1C927, size: 0x8, addend: 0x0, symName: __ZNSt3__117__compressed_pairIP4Vec3IfENS_9allocatorIS2_EEEC2B7v160006IDnNS_18__default_init_tagEEEOT_OT0_, symObjAddr: 0x16E0, symBinAddr: 0x100006CA0, symSize: 0x40 }
  - { offsetInCU: 0x1003B, offset: 0x1C97F, size: 0x8, addend: 0x0, symName: __ZNSt3__122__compressed_pair_elemIP4Vec3IfELi0ELb0EEC2B7v160006IDnvEEOT_, symObjAddr: 0x1720, symBinAddr: 0x100006CE0, symSize: 0x20 }
  - { offsetInCU: 0x1007D, offset: 0x1C9C1, size: 0x8, addend: 0x0, symName: __ZNSt3__122__compressed_pair_elemINS_9allocatorI4Vec3IfEEELi1ELb1EEC2B7v160006ENS_18__default_init_tagE, symObjAddr: 0x1740, symBinAddr: 0x100006D00, symSize: 0x20 }
  - { offsetInCU: 0x100B2, offset: 0x1C9F6, size: 0x8, addend: 0x0, symName: __ZNSt3__19allocatorI4Vec3IfEEC2B7v160006Ev, symObjAddr: 0x1760, symBinAddr: 0x100006D20, symSize: 0x20 }
  - { offsetInCU: 0x100DC, offset: 0x1CA20, size: 0x8, addend: 0x0, symName: __ZNSt3__116__non_trivial_ifILb1ENS_9allocatorI4Vec3IfEEEEC2B7v160006Ev, symObjAddr: 0x1780, symBinAddr: 0x100006D40, symSize: 0x10 }
  - { offsetInCU: 0x10106, offset: 0x1CA4A, size: 0x8, addend: 0x0, symName: __ZNSt3__16vectorINS0_IiNS_9allocatorIiEEEENS1_IS3_EEEC2B7v160006Ev, symObjAddr: 0x1790, symBinAddr: 0x100006D50, symSize: 0x60 }
  - { offsetInCU: 0x10130, offset: 0x1CA74, size: 0x8, addend: 0x0, symName: __ZNSt3__117__compressed_pairIPNS_6vectorIiNS_9allocatorIiEEEENS2_IS4_EEEC1B7v160006IDnNS_18__default_init_tagEEEOT_OT0_, symObjAddr: 0x17F0, symBinAddr: 0x100006DB0, symSize: 0x30 }
  - { offsetInCU: 0x10188, offset: 0x1CACC, size: 0x8, addend: 0x0, symName: __ZNSt3__117__compressed_pairIPNS_6vectorIiNS_9allocatorIiEEEENS2_IS4_EEEC2B7v160006IDnNS_18__default_init_tagEEEOT_OT0_, symObjAddr: 0x1830, symBinAddr: 0x100006DF0, symSize: 0x40 }
  - { offsetInCU: 0x101E0, offset: 0x1CB24, size: 0x8, addend: 0x0, symName: __ZNSt3__122__compressed_pair_elemIPNS_6vectorIiNS_9allocatorIiEEEELi0ELb0EEC2B7v160006IDnvEEOT_, symObjAddr: 0x1870, symBinAddr: 0x100006E30, symSize: 0x20 }
  - { offsetInCU: 0x10222, offset: 0x1CB66, size: 0x8, addend: 0x0, symName: __ZNSt3__122__compressed_pair_elemINS_9allocatorINS_6vectorIiNS1_IiEEEEEELi1ELb1EEC2B7v160006ENS_18__default_init_tagE, symObjAddr: 0x1890, symBinAddr: 0x100006E50, symSize: 0x20 }
  - { offsetInCU: 0x10257, offset: 0x1CB9B, size: 0x8, addend: 0x0, symName: __ZNSt3__19allocatorINS_6vectorIiNS0_IiEEEEEC2B7v160006Ev, symObjAddr: 0x18B0, symBinAddr: 0x100006E70, symSize: 0x20 }
  - { offsetInCU: 0x10281, offset: 0x1CBC5, size: 0x8, addend: 0x0, symName: __ZNSt3__116__non_trivial_ifILb1ENS_9allocatorINS_6vectorIiNS1_IiEEEEEEEC2B7v160006Ev, symObjAddr: 0x18D0, symBinAddr: 0x100006E90, symSize: 0x10 }
  - { offsetInCU: 0x102AB, offset: 0x1CBEF, size: 0x8, addend: 0x0, symName: __ZNSt3__16vectorI4Vec3IfENS_9allocatorIS2_EEED2B7v160006Ev, symObjAddr: 0x18E0, symBinAddr: 0x100006EA0, symSize: 0x40 }
  - { offsetInCU: 0x102D5, offset: 0x1CC19, size: 0x8, addend: 0x0, symName: __ZNSt3__16vectorI4Vec3IfENS_9allocatorIS2_EEE16__destroy_vectorC1ERS5_, symObjAddr: 0x1920, symBinAddr: 0x100006EE0, symSize: 0x30 }
  - { offsetInCU: 0x1030E, offset: 0x1CC52, size: 0x8, addend: 0x0, symName: __ZNSt3__16vectorI4Vec3IfENS_9allocatorIS2_EEE16__destroy_vectorclB7v160006Ev, symObjAddr: 0x1950, symBinAddr: 0x100006F10, symSize: 0x90 }
  - { offsetInCU: 0x10334, offset: 0x1CC78, size: 0x8, addend: 0x0, symName: __ZNSt3__16vectorI4Vec3IfENS_9allocatorIS2_EEE16__destroy_vectorC2ERS5_, symObjAddr: 0x19E0, symBinAddr: 0x100006FA0, symSize: 0x20 }
  - { offsetInCU: 0x1036D, offset: 0x1CCB1, size: 0x8, addend: 0x0, symName: __ZNKSt3__16vectorI4Vec3IfENS_9allocatorIS2_EEE17__annotate_deleteB7v160006Ev, symObjAddr: 0x1A00, symBinAddr: 0x100006FC0, symSize: 0xB0 }
  - { offsetInCU: 0x10393, offset: 0x1CCD7, size: 0x8, addend: 0x0, symName: __ZNSt3__16vectorI4Vec3IfENS_9allocatorIS2_EEE7__clearB7v160006Ev, symObjAddr: 0x1AC0, symBinAddr: 0x100007080, symSize: 0x20 }
  - { offsetInCU: 0x103B9, offset: 0x1CCFD, size: 0x8, addend: 0x0, symName: __ZNSt3__116allocator_traitsINS_9allocatorI4Vec3IfEEEE10deallocateB7v160006ERS4_PS3_m, symObjAddr: 0x1AE0, symBinAddr: 0x1000070A0, symSize: 0x30 }
  - { offsetInCU: 0x103FB, offset: 0x1CD3F, size: 0x8, addend: 0x0, symName: __ZNSt3__16vectorI4Vec3IfENS_9allocatorIS2_EEE7__allocB7v160006Ev, symObjAddr: 0x1B10, symBinAddr: 0x1000070D0, symSize: 0x20 }
  - { offsetInCU: 0x10421, offset: 0x1CD65, size: 0x8, addend: 0x0, symName: __ZNKSt3__16vectorI4Vec3IfENS_9allocatorIS2_EEE8capacityB7v160006Ev, symObjAddr: 0x1B30, symBinAddr: 0x1000070F0, symSize: 0x40 }
  - { offsetInCU: 0x10447, offset: 0x1CD8B, size: 0x8, addend: 0x0, symName: __ZNKSt3__16vectorI4Vec3IfENS_9allocatorIS2_EEE31__annotate_contiguous_containerB7v160006EPKvS7_S7_S7_, symObjAddr: 0x1B70, symBinAddr: 0x100007130, symSize: 0x20 }
  - { offsetInCU: 0x1049D, offset: 0x1CDE1, size: 0x8, addend: 0x0, symName: __ZNKSt3__16vectorI4Vec3IfENS_9allocatorIS2_EEE4dataB7v160006Ev, symObjAddr: 0x1B90, symBinAddr: 0x100007150, symSize: 0x20 }
  - { offsetInCU: 0x104C3, offset: 0x1CE07, size: 0x8, addend: 0x0, symName: __ZNSt3__16vectorI4Vec3IfENS_9allocatorIS2_EEE22__base_destruct_at_endB7v160006EPS2_, symObjAddr: 0x1BC0, symBinAddr: 0x100007180, symSize: 0x80 }
  - { offsetInCU: 0x10508, offset: 0x1CE4C, size: 0x8, addend: 0x0, symName: __ZNSt3__116allocator_traitsINS_9allocatorI4Vec3IfEEEE7destroyB7v160006IS3_vEEvRS4_PT_, symObjAddr: 0x1C40, symBinAddr: 0x100007200, symSize: 0x30 }
  - { offsetInCU: 0x10545, offset: 0x1CE89, size: 0x8, addend: 0x0, symName: __ZNSt3__19allocatorI4Vec3IfEE7destroyB7v160006EPS2_, symObjAddr: 0x1C70, symBinAddr: 0x100007230, symSize: 0x10 }
  - { offsetInCU: 0x10579, offset: 0x1CEBD, size: 0x8, addend: 0x0, symName: __ZNSt3__19allocatorI4Vec3IfEE10deallocateB7v160006EPS2_m, symObjAddr: 0x1C80, symBinAddr: 0x100007240, symSize: 0x50 }
  - { offsetInCU: 0x105BB, offset: 0x1CEFF, size: 0x8, addend: 0x0, symName: __ZNSt3__117__compressed_pairIP4Vec3IfENS_9allocatorIS2_EEE6secondB7v160006Ev, symObjAddr: 0x1D40, symBinAddr: 0x100007290, symSize: 0x20 }
  - { offsetInCU: 0x105E1, offset: 0x1CF25, size: 0x8, addend: 0x0, symName: __ZNSt3__122__compressed_pair_elemINS_9allocatorI4Vec3IfEEELi1ELb1EE5__getB7v160006Ev, symObjAddr: 0x1D60, symBinAddr: 0x1000072B0, symSize: 0x10 }
  - { offsetInCU: 0x10607, offset: 0x1CF4B, size: 0x8, addend: 0x0, symName: __ZNKSt3__16vectorI4Vec3IfENS_9allocatorIS2_EEE9__end_capB7v160006Ev, symObjAddr: 0x1D70, symBinAddr: 0x1000072C0, symSize: 0x20 }
  - { offsetInCU: 0x1062D, offset: 0x1CF71, size: 0x8, addend: 0x0, symName: __ZNKSt3__117__compressed_pairIP4Vec3IfENS_9allocatorIS2_EEE5firstB7v160006Ev, symObjAddr: 0x1D90, symBinAddr: 0x1000072E0, symSize: 0x20 }
  - { offsetInCU: 0x10653, offset: 0x1CF97, size: 0x8, addend: 0x0, symName: __ZNKSt3__122__compressed_pair_elemIP4Vec3IfELi0ELb0EE5__getB7v160006Ev, symObjAddr: 0x1DB0, symBinAddr: 0x100007300, symSize: 0x10 }
  - { offsetInCU: 0x10679, offset: 0x1CFBD, size: 0x8, addend: 0x0, symName: __ZNSt3__16vectorINS0_IiNS_9allocatorIiEEEENS1_IS3_EEED2B7v160006Ev, symObjAddr: 0x1DC0, symBinAddr: 0x100007310, symSize: 0x40 }
  - { offsetInCU: 0x106A3, offset: 0x1CFE7, size: 0x8, addend: 0x0, symName: __ZNSt3__16vectorINS0_IiNS_9allocatorIiEEEENS1_IS3_EEE16__destroy_vectorC1ERS5_, symObjAddr: 0x1E00, symBinAddr: 0x100007350, symSize: 0x30 }
  - { offsetInCU: 0x106DC, offset: 0x1D020, size: 0x8, addend: 0x0, symName: __ZNSt3__16vectorINS0_IiNS_9allocatorIiEEEENS1_IS3_EEE16__destroy_vectorclB7v160006Ev, symObjAddr: 0x1E30, symBinAddr: 0x100007380, symSize: 0x90 }
  - { offsetInCU: 0x10702, offset: 0x1D046, size: 0x8, addend: 0x0, symName: __ZNSt3__16vectorINS0_IiNS_9allocatorIiEEEENS1_IS3_EEE16__destroy_vectorC2ERS5_, symObjAddr: 0x1EC0, symBinAddr: 0x100007410, symSize: 0x20 }
  - { offsetInCU: 0x1073B, offset: 0x1D07F, size: 0x8, addend: 0x0, symName: __ZNKSt3__16vectorINS0_IiNS_9allocatorIiEEEENS1_IS3_EEE17__annotate_deleteB7v160006Ev, symObjAddr: 0x1EE0, symBinAddr: 0x100007430, symSize: 0xB0 }
  - { offsetInCU: 0x10761, offset: 0x1D0A5, size: 0x8, addend: 0x0, symName: __ZNSt3__16vectorINS0_IiNS_9allocatorIiEEEENS1_IS3_EEE7__clearB7v160006Ev, symObjAddr: 0x1FA0, symBinAddr: 0x1000074F0, symSize: 0x20 }
  - { offsetInCU: 0x10787, offset: 0x1D0CB, size: 0x8, addend: 0x0, symName: __ZNSt3__116allocator_traitsINS_9allocatorINS_6vectorIiNS1_IiEEEEEEE10deallocateB7v160006ERS5_PS4_m, symObjAddr: 0x1FC0, symBinAddr: 0x100007510, symSize: 0x30 }
  - { offsetInCU: 0x107C9, offset: 0x1D10D, size: 0x8, addend: 0x0, symName: __ZNSt3__16vectorINS0_IiNS_9allocatorIiEEEENS1_IS3_EEE7__allocB7v160006Ev, symObjAddr: 0x1FF0, symBinAddr: 0x100007540, symSize: 0x20 }
  - { offsetInCU: 0x107EF, offset: 0x1D133, size: 0x8, addend: 0x0, symName: __ZNKSt3__16vectorINS0_IiNS_9allocatorIiEEEENS1_IS3_EEE8capacityB7v160006Ev, symObjAddr: 0x2010, symBinAddr: 0x100007560, symSize: 0x40 }
  - { offsetInCU: 0x10815, offset: 0x1D159, size: 0x8, addend: 0x0, symName: __ZNKSt3__16vectorINS0_IiNS_9allocatorIiEEEENS1_IS3_EEE31__annotate_contiguous_containerB7v160006EPKvS7_S7_S7_, symObjAddr: 0x2050, symBinAddr: 0x1000075A0, symSize: 0x20 }
  - { offsetInCU: 0x1086B, offset: 0x1D1AF, size: 0x8, addend: 0x0, symName: __ZNKSt3__16vectorINS0_IiNS_9allocatorIiEEEENS1_IS3_EEE4dataB7v160006Ev, symObjAddr: 0x2070, symBinAddr: 0x1000075C0, symSize: 0x20 }
  - { offsetInCU: 0x10891, offset: 0x1D1D5, size: 0x8, addend: 0x0, symName: __ZNSt3__16vectorINS0_IiNS_9allocatorIiEEEENS1_IS3_EEE22__base_destruct_at_endB7v160006EPS3_, symObjAddr: 0x20A0, symBinAddr: 0x1000075F0, symSize: 0x80 }
  - { offsetInCU: 0x108D6, offset: 0x1D21A, size: 0x8, addend: 0x0, symName: __ZNSt3__116allocator_traitsINS_9allocatorINS_6vectorIiNS1_IiEEEEEEE7destroyB7v160006IS4_vEEvRS5_PT_, symObjAddr: 0x2120, symBinAddr: 0x100007670, symSize: 0x30 }
  - { offsetInCU: 0x10913, offset: 0x1D257, size: 0x8, addend: 0x0, symName: __ZNSt3__19allocatorINS_6vectorIiNS0_IiEEEEE7destroyB7v160006EPS3_, symObjAddr: 0x2150, symBinAddr: 0x1000076A0, symSize: 0x20 }
  - { offsetInCU: 0x10947, offset: 0x1D28B, size: 0x8, addend: 0x0, symName: __ZNSt3__19allocatorINS_6vectorIiNS0_IiEEEEE10deallocateB7v160006EPS3_m, symObjAddr: 0x2170, symBinAddr: 0x1000076C0, symSize: 0x50 }
  - { offsetInCU: 0x10989, offset: 0x1D2CD, size: 0x8, addend: 0x0, symName: __ZNSt3__117__compressed_pairIPNS_6vectorIiNS_9allocatorIiEEEENS2_IS4_EEE6secondB7v160006Ev, symObjAddr: 0x21C0, symBinAddr: 0x100007710, symSize: 0x20 }
  - { offsetInCU: 0x109AF, offset: 0x1D2F3, size: 0x8, addend: 0x0, symName: __ZNSt3__122__compressed_pair_elemINS_9allocatorINS_6vectorIiNS1_IiEEEEEELi1ELb1EE5__getB7v160006Ev, symObjAddr: 0x21E0, symBinAddr: 0x100007730, symSize: 0x10 }
  - { offsetInCU: 0x109D5, offset: 0x1D319, size: 0x8, addend: 0x0, symName: __ZNKSt3__16vectorINS0_IiNS_9allocatorIiEEEENS1_IS3_EEE9__end_capB7v160006Ev, symObjAddr: 0x21F0, symBinAddr: 0x100007740, symSize: 0x20 }
  - { offsetInCU: 0x109FB, offset: 0x1D33F, size: 0x8, addend: 0x0, symName: __ZNKSt3__117__compressed_pairIPNS_6vectorIiNS_9allocatorIiEEEENS2_IS4_EEE5firstB7v160006Ev, symObjAddr: 0x2210, symBinAddr: 0x100007760, symSize: 0x20 }
  - { offsetInCU: 0x10A21, offset: 0x1D365, size: 0x8, addend: 0x0, symName: __ZNKSt3__122__compressed_pair_elemIPNS_6vectorIiNS_9allocatorIiEEEELi0ELb0EE5__getB7v160006Ev, symObjAddr: 0x2230, symBinAddr: 0x100007780, symSize: 0x10 }
  - { offsetInCU: 0x10A47, offset: 0x1D38B, size: 0x8, addend: 0x0, symName: __ZNSt3__19basic_iosIcNS_11char_traitsIcEEEC2B7v160006Ev, symObjAddr: 0x2240, symBinAddr: 0x100007790, symSize: 0x40 }
  - { offsetInCU: 0x10A71, offset: 0x1D3B5, size: 0x8, addend: 0x0, symName: __ZNSt3__113basic_istreamIcNS_11char_traitsIcEEEC2B7v160006EPNS_15basic_streambufIcS2_EE, symObjAddr: 0x2280, symBinAddr: 0x1000077D0, symSize: 0x50 }
  - { offsetInCU: 0x10AB6, offset: 0x1D3FA, size: 0x8, addend: 0x0, symName: __ZNSt3__18ios_baseC2B7v160006Ev, symObjAddr: 0x22D0, symBinAddr: 0x100007820, symSize: 0x20 }
  - { offsetInCU: 0x10ADF, offset: 0x1D423, size: 0x8, addend: 0x0, symName: __ZNSt3__19basic_iosIcNS_11char_traitsIcEEE4initB7v160006EPNS_15basic_streambufIcS2_EE, symObjAddr: 0x22F0, symBinAddr: 0x100007840, symSize: 0x50 }
  - { offsetInCU: 0x10B17, offset: 0x1D45B, size: 0x8, addend: 0x0, symName: __ZNSt3__111char_traitsIcE3eofEv, symObjAddr: 0x2340, symBinAddr: 0x100007890, symSize: 0x10 }
  - { offsetInCU: 0x10B2A, offset: 0x1D46E, size: 0x8, addend: 0x0, symName: __ZNKSt3__18ios_base4failB7v160006Ev, symObjAddr: 0x2350, symBinAddr: 0x1000078A0, symSize: 0x20 }
  - { offsetInCU: 0x10B52, offset: 0x1D496, size: 0x8, addend: 0x0, symName: __ZNKSt3__18ios_base3eofB7v160006Ev, symObjAddr: 0x2370, symBinAddr: 0x1000078C0, symSize: 0x20 }
  - { offsetInCU: 0x10B7A, offset: 0x1D4BE, size: 0x8, addend: 0x0, symName: __ZNKSt3__19basic_iosIcNS_11char_traitsIcEEE5widenB7v160006Ec, symObjAddr: 0x25B0, symBinAddr: 0x100007B00, symSize: 0x80 }
  - { offsetInCU: 0x10BD0, offset: 0x1D514, size: 0x8, addend: 0x0, symName: __ZNKSt3__113basic_istreamIcNS_11char_traitsIcEEE6sentrycvbB7v160006Ev, symObjAddr: 0x2630, symBinAddr: 0x100007B80, symSize: 0x20 }
  - { offsetInCU: 0x10BF5, offset: 0x1D539, size: 0x8, addend: 0x0, symName: __ZNSt3__112basic_stringIcNS_11char_traitsIcEENS_9allocatorIcEEE5clearB7v160006Ev, symObjAddr: 0x2650, symBinAddr: 0x100007BA0, symSize: 0xA0 }
  - { offsetInCU: 0x10C1D, offset: 0x1D561, size: 0x8, addend: 0x0, symName: __ZNKSt3__19basic_iosIcNS_11char_traitsIcEEE5rdbufB7v160006Ev, symObjAddr: 0x26F0, symBinAddr: 0x100007C40, symSize: 0x20 }
  - { offsetInCU: 0x10C46, offset: 0x1D58A, size: 0x8, addend: 0x0, symName: __ZNSt3__115basic_streambufIcNS_11char_traitsIcEEE6sbumpcB7v160006Ev, symObjAddr: 0x2710, symBinAddr: 0x100007C60, symSize: 0x60 }
  - { offsetInCU: 0x10C6C, offset: 0x1D5B0, size: 0x8, addend: 0x0, symName: __ZNSt3__111char_traitsIcE11eq_int_typeEii, symObjAddr: 0x2770, symBinAddr: 0x100007CC0, symSize: 0x20 }
  - { offsetInCU: 0x10C9D, offset: 0x1D5E1, size: 0x8, addend: 0x0, symName: __ZNSt3__111char_traitsIcE12to_char_typeEi, symObjAddr: 0x2790, symBinAddr: 0x100007CE0, symSize: 0x10 }
  - { offsetInCU: 0x10CC0, offset: 0x1D604, size: 0x8, addend: 0x0, symName: __ZNSt3__111char_traitsIcE2eqEcc, symObjAddr: 0x27A0, symBinAddr: 0x100007CF0, symSize: 0x30 }
  - { offsetInCU: 0x10CF1, offset: 0x1D635, size: 0x8, addend: 0x0, symName: __ZNKSt3__112basic_stringIcNS_11char_traitsIcEENS_9allocatorIcEEE4sizeB7v160006Ev, symObjAddr: 0x27D0, symBinAddr: 0x100007D20, symSize: 0x50 }
  - { offsetInCU: 0x10D17, offset: 0x1D65B, size: 0x8, addend: 0x0, symName: __ZNKSt3__112basic_stringIcNS_11char_traitsIcEENS_9allocatorIcEEE8max_sizeB7v160006Ev, symObjAddr: 0x2820, symBinAddr: 0x100007D70, symSize: 0xA0 }
  - { offsetInCU: 0x10D6C, offset: 0x1D6B0, size: 0x8, addend: 0x0, symName: __ZNSt3__18ios_base18__setstate_nothrowB7v160006Ej, symObjAddr: 0x28C0, symBinAddr: 0x100007E10, symSize: 0x50 }
  - { offsetInCU: 0x10DA1, offset: 0x1D6E5, size: 0x8, addend: 0x0, symName: __ZNKSt3__19basic_iosIcNS_11char_traitsIcEEE10exceptionsB7v160006Ev, symObjAddr: 0x2910, symBinAddr: 0x100007E60, symSize: 0x20 }
  - { offsetInCU: 0x10DC7, offset: 0x1D70B, size: 0x8, addend: 0x0, symName: __ZNSt3__19basic_iosIcNS_11char_traitsIcEEE8setstateB7v160006Ej, symObjAddr: 0x2930, symBinAddr: 0x100007E80, symSize: 0x30 }
  - { offsetInCU: 0x10DFC, offset: 0x1D740, size: 0x8, addend: 0x0, symName: __ZNSt3__111char_traitsIcE6assignERcRKc, symObjAddr: 0x2970, symBinAddr: 0x100007EC0, symSize: 0x20 }
  - { offsetInCU: 0x10E2D, offset: 0x1D771, size: 0x8, addend: 0x0, symName: __ZNSt3__112basic_stringIcNS_11char_traitsIcEENS_9allocatorIcEEE18__get_long_pointerB7v160006Ev, symObjAddr: 0x2990, symBinAddr: 0x100007EE0, symSize: 0x20 }
  - { offsetInCU: 0x10E53, offset: 0x1D797, size: 0x8, addend: 0x0, symName: __ZNSt3__112basic_stringIcNS_11char_traitsIcEENS_9allocatorIcEEE15__set_long_sizeB7v160006Em, symObjAddr: 0x29B0, symBinAddr: 0x100007F00, symSize: 0x30 }
  - { offsetInCU: 0x10E88, offset: 0x1D7CC, size: 0x8, addend: 0x0, symName: __ZNSt3__112basic_stringIcNS_11char_traitsIcEENS_9allocatorIcEEE19__get_short_pointerB7v160006Ev, symObjAddr: 0x29E0, symBinAddr: 0x100007F30, symSize: 0x30 }
  - { offsetInCU: 0x10EAE, offset: 0x1D7F2, size: 0x8, addend: 0x0, symName: __ZNSt3__112basic_stringIcNS_11char_traitsIcEENS_9allocatorIcEEE16__set_short_sizeB7v160006Em, symObjAddr: 0x2A10, symBinAddr: 0x100007F60, symSize: 0x50 }
  - { offsetInCU: 0x10EE3, offset: 0x1D827, size: 0x8, addend: 0x0, symName: __ZNSt3__114pointer_traitsIPcE10pointer_toB7v160006ERc, symObjAddr: 0x2A60, symBinAddr: 0x100007FB0, symSize: 0x10 }
  - { offsetInCU: 0x10F06, offset: 0x1D84A, size: 0x8, addend: 0x0, symName: __ZNKSt3__18ios_base5rdbufB7v160006Ev, symObjAddr: 0x2A70, symBinAddr: 0x100007FC0, symSize: 0x20 }
  - { offsetInCU: 0x10F2C, offset: 0x1D870, size: 0x8, addend: 0x0, symName: __ZNSt3__111char_traitsIcE11to_int_typeEc, symObjAddr: 0x2A90, symBinAddr: 0x100007FE0, symSize: 0x10 }
  - { offsetInCU: 0x10F4F, offset: 0x1D893, size: 0x8, addend: 0x0, symName: __ZNKSt3__112basic_stringIcNS_11char_traitsIcEENS_9allocatorIcEEE15__get_long_sizeB7v160006Ev, symObjAddr: 0x2AA0, symBinAddr: 0x100007FF0, symSize: 0x20 }
  - { offsetInCU: 0x10F75, offset: 0x1D8B9, size: 0x8, addend: 0x0, symName: __ZNKSt3__112basic_stringIcNS_11char_traitsIcEENS_9allocatorIcEEE16__get_short_sizeB7v160006Ev, symObjAddr: 0x2AC0, symBinAddr: 0x100008010, symSize: 0x30 }
  - { offsetInCU: 0x10FA5, offset: 0x1D8E9, size: 0x8, addend: 0x0, symName: __ZNSt3__116allocator_traitsINS_9allocatorIcEEE8max_sizeB7v160006IS2_vEEmRKS2_, symObjAddr: 0x2AF0, symBinAddr: 0x100008040, symSize: 0x20 }
  - { offsetInCU: 0x10FD3, offset: 0x1D917, size: 0x8, addend: 0x0, symName: __ZNKSt3__112basic_stringIcNS_11char_traitsIcEENS_9allocatorIcEEE7__allocB7v160006Ev, symObjAddr: 0x2B10, symBinAddr: 0x100008060, symSize: 0x20 }
  - { offsetInCU: 0x10FF9, offset: 0x1D93D, size: 0x8, addend: 0x0, symName: __ZNSt3__114numeric_limitsImE3maxB7v160006Ev, symObjAddr: 0x2B30, symBinAddr: 0x100008080, symSize: 0x10 }
  - { offsetInCU: 0x1100D, offset: 0x1D951, size: 0x8, addend: 0x0, symName: __ZNKSt3__19allocatorIcE8max_sizeB7v160006Ev, symObjAddr: 0x2B40, symBinAddr: 0x100008090, symSize: 0x20 }
  - { offsetInCU: 0x11033, offset: 0x1D977, size: 0x8, addend: 0x0, symName: __ZNKSt3__117__compressed_pairINS_12basic_stringIcNS_11char_traitsIcEENS_9allocatorIcEEE5__repES5_E6secondB7v160006Ev, symObjAddr: 0x2B60, symBinAddr: 0x1000080B0, symSize: 0x20 }
  - { offsetInCU: 0x11059, offset: 0x1D99D, size: 0x8, addend: 0x0, symName: __ZNKSt3__122__compressed_pair_elemINS_9allocatorIcEELi1ELb1EE5__getB7v160006Ev, symObjAddr: 0x2B80, symBinAddr: 0x1000080D0, symSize: 0x10 }
  - { offsetInCU: 0x1107F, offset: 0x1D9C3, size: 0x8, addend: 0x0, symName: __ZNSt3__123__libcpp_numeric_limitsImLb1EE3maxB7v160006Ev, symObjAddr: 0x2B90, symBinAddr: 0x1000080E0, symSize: 0x10 }
  - { offsetInCU: 0x11092, offset: 0x1D9D6, size: 0x8, addend: 0x0, symName: __ZNKSt3__18ios_base10exceptionsB7v160006Ev, symObjAddr: 0x2BA0, symBinAddr: 0x1000080F0, symSize: 0x20 }
  - { offsetInCU: 0x110BA, offset: 0x1D9FE, size: 0x8, addend: 0x0, symName: __ZNSt3__18ios_base8setstateB7v160006Ej, symObjAddr: 0x2BC0, symBinAddr: 0x100008110, symSize: 0x30 }
  - { offsetInCU: 0x11129, offset: 0x1DA6D, size: 0x8, addend: 0x0, symName: __ZNKSt3__15ctypeIcE5widenB7v160006Ec, symObjAddr: 0x2C20, symBinAddr: 0x100008170, symSize: 0x30 }
  - { offsetInCU: 0x1115E, offset: 0x1DAA2, size: 0x8, addend: 0x0, symName: __ZNSt3__112basic_stringIcNS_11char_traitsIcEENS_9allocatorIcEEEC2B7v160006IDnEEPKc, symObjAddr: 0x2C50, symBinAddr: 0x1000081A0, symSize: 0x60 }
  - { offsetInCU: 0x1119C, offset: 0x1DAE0, size: 0x8, addend: 0x0, symName: __ZNSt3__111char_traitsIcE6lengthEPKc, symObjAddr: 0x2CB0, symBinAddr: 0x100008200, symSize: 0x30 }
  - { offsetInCU: 0x111BF, offset: 0x1DB03, size: 0x8, addend: 0x0, symName: __ZNSt3__115basic_stringbufIcNS_11char_traitsIcEENS_9allocatorIcEEEC1B7v160006ERKNS_12basic_stringIcS2_S4_EEj, symObjAddr: 0x2D00, symBinAddr: 0x100008250, symSize: 0x30 }
  - { offsetInCU: 0x11205, offset: 0x1DB49, size: 0x8, addend: 0x0, symName: __ZNSt3__115basic_stringbufIcNS_11char_traitsIcEENS_9allocatorIcEEEC2B7v160006ERKNS_12basic_stringIcS2_S4_EEj, symObjAddr: 0x2D30, symBinAddr: 0x100008280, symSize: 0xA0 }
  - { offsetInCU: 0x1124B, offset: 0x1DB8F, size: 0x8, addend: 0x0, symName: __ZNKSt3__112basic_stringIcNS_11char_traitsIcEENS_9allocatorIcEEE13get_allocatorB7v160006Ev, symObjAddr: 0x2DD0, symBinAddr: 0x100008320, symSize: 0x20 }
  - { offsetInCU: 0x11271, offset: 0x1DBB5, size: 0x8, addend: 0x0, symName: __ZNSt3__112basic_stringIcNS_11char_traitsIcEENS_9allocatorIcEEEC1B7v160006ERKS4_, symObjAddr: 0x2DF0, symBinAddr: 0x100008340, symSize: 0x30 }
  - { offsetInCU: 0x112AA, offset: 0x1DBEE, size: 0x8, addend: 0x0, symName: __ZNSt3__112basic_stringIcNS_11char_traitsIcEENS_9allocatorIcEEEC2B7v160006ERKS4_, symObjAddr: 0x2E20, symBinAddr: 0x100008370, symSize: 0x50 }
  - { offsetInCU: 0x112E3, offset: 0x1DC27, size: 0x8, addend: 0x0, symName: __ZNSt3__117__compressed_pairINS_12basic_stringIcNS_11char_traitsIcEENS_9allocatorIcEEE5__repES5_EC1B7v160006INS_18__default_init_tagERKS5_EEOT_OT0_, symObjAddr: 0x2E70, symBinAddr: 0x1000083C0, symSize: 0x30 }
  - { offsetInCU: 0x1133B, offset: 0x1DC7F, size: 0x8, addend: 0x0, symName: __ZNSt3__117__compressed_pairINS_12basic_stringIcNS_11char_traitsIcEENS_9allocatorIcEEE5__repES5_EC2B7v160006INS_18__default_init_tagERKS5_EEOT_OT0_, symObjAddr: 0x2EA0, symBinAddr: 0x1000083F0, symSize: 0x40 }
  - { offsetInCU: 0x11393, offset: 0x1DCD7, size: 0x8, addend: 0x0, symName: __ZNSt3__122__compressed_pair_elemINS_9allocatorIcEELi1ELb1EEC2B7v160006IRKS2_vEEOT_, symObjAddr: 0x2EE0, symBinAddr: 0x100008430, symSize: 0x10 }
  - { offsetInCU: 0x113D5, offset: 0x1DD19, size: 0x8, addend: 0x0, symName: __ZNSt3__16vectorI4Vec3IfENS_9allocatorIS2_EEE9__end_capB7v160006Ev, symObjAddr: 0x2F20, symBinAddr: 0x100008440, symSize: 0x20 }
  - { offsetInCU: 0x113FB, offset: 0x1DD3F, size: 0x8, addend: 0x0, symName: __ZNSt3__16vectorI4Vec3IfENS_9allocatorIS2_EEE22__construct_one_at_endB7v160006IJRKS2_EEEvDpOT_, symObjAddr: 0x2F40, symBinAddr: 0x100008460, symSize: 0x90 }
  - { offsetInCU: 0x1144A, offset: 0x1DD8E, size: 0x8, addend: 0x0, symName: __ZNSt3__16vectorI4Vec3IfENS_9allocatorIS2_EEE21__push_back_slow_pathIRKS2_EEvOT_, symObjAddr: 0x2FD0, symBinAddr: 0x1000084F0, symSize: 0xD0 }
  - { offsetInCU: 0x114AB, offset: 0x1DDEF, size: 0x8, addend: 0x0, symName: __ZNSt3__117__compressed_pairIP4Vec3IfENS_9allocatorIS2_EEE5firstB7v160006Ev, symObjAddr: 0x30A0, symBinAddr: 0x1000085C0, symSize: 0x20 }
  - { offsetInCU: 0x114D1, offset: 0x1DE15, size: 0x8, addend: 0x0, symName: __ZNSt3__122__compressed_pair_elemIP4Vec3IfELi0ELb0EE5__getB7v160006Ev, symObjAddr: 0x30C0, symBinAddr: 0x1000085E0, symSize: 0x10 }
  - { offsetInCU: 0x11510, offset: 0x1DE54, size: 0x8, addend: 0x0, symName: __ZNSt3__16vectorI4Vec3IfENS_9allocatorIS2_EEE21_ConstructTransactionC1B7v160006ERS5_m, symObjAddr: 0x30D0, symBinAddr: 0x1000085F0, symSize: 0x30 }
  - { offsetInCU: 0x11558, offset: 0x1DE9C, size: 0x8, addend: 0x0, symName: __ZNSt3__116allocator_traitsINS_9allocatorI4Vec3IfEEEE9constructB7v160006IS3_JRKS3_EvEEvRS4_PT_DpOT0_, symObjAddr: 0x3100, symBinAddr: 0x100008620, symSize: 0x30 }
  - { offsetInCU: 0x115AF, offset: 0x1DEF3, size: 0x8, addend: 0x0, symName: __ZNSt3__16vectorI4Vec3IfENS_9allocatorIS2_EEE21_ConstructTransactionD1B7v160006Ev, symObjAddr: 0x3130, symBinAddr: 0x100008650, symSize: 0x20 }
  - { offsetInCU: 0x115D9, offset: 0x1DF1D, size: 0x8, addend: 0x0, symName: __ZNSt3__16vectorI4Vec3IfENS_9allocatorIS2_EEE21_ConstructTransactionC2B7v160006ERS5_m, symObjAddr: 0x3150, symBinAddr: 0x100008670, symSize: 0x40 }
  - { offsetInCU: 0x11621, offset: 0x1DF65, size: 0x8, addend: 0x0, symName: __ZNSt3__19allocatorI4Vec3IfEE9constructB7v160006IS2_JRKS2_EEEvPT_DpOT0_, symObjAddr: 0x3190, symBinAddr: 0x1000086B0, symSize: 0x30 }
  - { offsetInCU: 0x11677, offset: 0x1DFBB, size: 0x8, addend: 0x0, symName: __ZNSt3__16vectorI4Vec3IfENS_9allocatorIS2_EEE21_ConstructTransactionD2B7v160006Ev, symObjAddr: 0x31C0, symBinAddr: 0x1000086E0, symSize: 0x20 }
  - { offsetInCU: 0x116A0, offset: 0x1DFE4, size: 0x8, addend: 0x0, symName: __ZNKSt3__16vectorI4Vec3IfENS_9allocatorIS2_EEE11__recommendB7v160006Em, symObjAddr: 0x31E0, symBinAddr: 0x100008700, symSize: 0xA0 }
  - { offsetInCU: 0x116F8, offset: 0x1E03C, size: 0x8, addend: 0x0, symName: __ZNSt3__114__split_bufferI4Vec3IfERNS_9allocatorIS2_EEEC1EmmS5_, symObjAddr: 0x3280, symBinAddr: 0x1000087A0, symSize: 0x40 }
  - { offsetInCU: 0x1174E, offset: 0x1E092, size: 0x8, addend: 0x0, symName: __ZNSt3__114__split_bufferI4Vec3IfERNS_9allocatorIS2_EEED1Ev, symObjAddr: 0x33F0, symBinAddr: 0x100008910, symSize: 0x20 }
  - { offsetInCU: 0x11779, offset: 0x1E0BD, size: 0x8, addend: 0x0, symName: __ZNKSt3__16vectorI4Vec3IfENS_9allocatorIS2_EEE8max_sizeEv, symObjAddr: 0x3410, symBinAddr: 0x100008930, symSize: 0x60 }
  - { offsetInCU: 0x117A2, offset: 0x1E0E6, size: 0x8, addend: 0x0, symName: __ZNKSt3__16vectorI4Vec3IfENS_9allocatorIS2_EEE20__throw_length_errorB7v160006Ev, symObjAddr: 0x3470, symBinAddr: 0x100008990, symSize: 0x20 }
  - { offsetInCU: 0x117D2, offset: 0x1E116, size: 0x8, addend: 0x0, symName: __ZNSt3__116allocator_traitsINS_9allocatorI4Vec3IfEEEE8max_sizeB7v160006IS4_vEEmRKS4_, symObjAddr: 0x34F0, symBinAddr: 0x100008A10, symSize: 0x20 }
  - { offsetInCU: 0x11800, offset: 0x1E144, size: 0x8, addend: 0x0, symName: __ZNKSt3__16vectorI4Vec3IfENS_9allocatorIS2_EEE7__allocB7v160006Ev, symObjAddr: 0x3510, symBinAddr: 0x100008A30, symSize: 0x20 }
  - { offsetInCU: 0x11826, offset: 0x1E16A, size: 0x8, addend: 0x0, symName: __ZNSt3__114numeric_limitsIlE3maxB7v160006Ev, symObjAddr: 0x3530, symBinAddr: 0x100008A50, symSize: 0x10 }
  - { offsetInCU: 0x1184E, offset: 0x1E192, size: 0x8, addend: 0x0, symName: __ZNKSt3__16__lessImmEclB7v160006ERKmS3_, symObjAddr: 0x3590, symBinAddr: 0x100008AB0, symSize: 0x30 }
  - { offsetInCU: 0x11890, offset: 0x1E1D4, size: 0x8, addend: 0x0, symName: __ZNKSt3__19allocatorI4Vec3IfEE8max_sizeB7v160006Ev, symObjAddr: 0x35C0, symBinAddr: 0x100008AE0, symSize: 0x20 }
  - { offsetInCU: 0x118B6, offset: 0x1E1FA, size: 0x8, addend: 0x0, symName: __ZNKSt3__117__compressed_pairIP4Vec3IfENS_9allocatorIS2_EEE6secondB7v160006Ev, symObjAddr: 0x35E0, symBinAddr: 0x100008B00, symSize: 0x20 }
  - { offsetInCU: 0x118DC, offset: 0x1E220, size: 0x8, addend: 0x0, symName: __ZNKSt3__122__compressed_pair_elemINS_9allocatorI4Vec3IfEEELi1ELb1EE5__getB7v160006Ev, symObjAddr: 0x3600, symBinAddr: 0x100008B20, symSize: 0x10 }
  - { offsetInCU: 0x11902, offset: 0x1E246, size: 0x8, addend: 0x0, symName: __ZNSt3__123__libcpp_numeric_limitsIlLb1EE3maxB7v160006Ev, symObjAddr: 0x3610, symBinAddr: 0x100008B30, symSize: 0x10 }
  - { offsetInCU: 0x11916, offset: 0x1E25A, size: 0x8, addend: 0x0, symName: __ZNSt12length_errorC1B7v160006EPKc, symObjAddr: 0x3690, symBinAddr: 0x100008BB0, symSize: 0x30 }
  - { offsetInCU: 0x1194E, offset: 0x1E292, size: 0x8, addend: 0x0, symName: __ZNSt12length_errorC2B7v160006EPKc, symObjAddr: 0x36C0, symBinAddr: 0x100008BE0, symSize: 0x40 }
  - { offsetInCU: 0x11986, offset: 0x1E2CA, size: 0x8, addend: 0x0, symName: __ZNSt3__114__split_bufferI4Vec3IfERNS_9allocatorIS2_EEEC2EmmS5_, symObjAddr: 0x3750, symBinAddr: 0x100008C70, symSize: 0xC0 }
  - { offsetInCU: 0x119FB, offset: 0x1E33F, size: 0x8, addend: 0x0, symName: __ZNSt3__117__compressed_pairIP4Vec3IfERNS_9allocatorIS2_EEEC1B7v160006IDnS6_EEOT_OT0_, symObjAddr: 0x3810, symBinAddr: 0x100008D30, symSize: 0x30 }
  - { offsetInCU: 0x11A53, offset: 0x1E397, size: 0x8, addend: 0x0, symName: __ZNSt3__114__split_bufferI4Vec3IfERNS_9allocatorIS2_EEE7__allocB7v160006Ev, symObjAddr: 0x3880, symBinAddr: 0x100008DA0, symSize: 0x20 }
  - { offsetInCU: 0x11A79, offset: 0x1E3BD, size: 0x8, addend: 0x0, symName: __ZNSt3__114__split_bufferI4Vec3IfERNS_9allocatorIS2_EEE9__end_capB7v160006Ev, symObjAddr: 0x38A0, symBinAddr: 0x100008DC0, symSize: 0x20 }
  - { offsetInCU: 0x11A9F, offset: 0x1E3E3, size: 0x8, addend: 0x0, symName: __ZNSt3__117__compressed_pairIP4Vec3IfERNS_9allocatorIS2_EEEC2B7v160006IDnS6_EEOT_OT0_, symObjAddr: 0x38C0, symBinAddr: 0x100008DE0, symSize: 0x40 }
  - { offsetInCU: 0x11AF7, offset: 0x1E43B, size: 0x8, addend: 0x0, symName: __ZNSt3__122__compressed_pair_elemIRNS_9allocatorI4Vec3IfEEELi1ELb0EEC2B7v160006IS5_vEEOT_, symObjAddr: 0x3900, symBinAddr: 0x100008E20, symSize: 0x20 }
  - { offsetInCU: 0x11B39, offset: 0x1E47D, size: 0x8, addend: 0x0, symName: __ZNSt3__19allocatorI4Vec3IfEE8allocateB7v160006Em, symObjAddr: 0x3920, symBinAddr: 0x100008E40, symSize: 0x50 }
  - { offsetInCU: 0x11B6D, offset: 0x1E4B1, size: 0x8, addend: 0x0, symName: __ZNSt3__117__compressed_pairIP4Vec3IfERNS_9allocatorIS2_EEE6secondB7v160006Ev, symObjAddr: 0x39F0, symBinAddr: 0x100008F10, symSize: 0x20 }
  - { offsetInCU: 0x11B93, offset: 0x1E4D7, size: 0x8, addend: 0x0, symName: __ZNSt3__122__compressed_pair_elemIRNS_9allocatorI4Vec3IfEEELi1ELb0EE5__getB7v160006Ev, symObjAddr: 0x3A10, symBinAddr: 0x100008F30, symSize: 0x20 }
  - { offsetInCU: 0x11BB9, offset: 0x1E4FD, size: 0x8, addend: 0x0, symName: __ZNSt3__117__compressed_pairIP4Vec3IfERNS_9allocatorIS2_EEE5firstB7v160006Ev, symObjAddr: 0x3A30, symBinAddr: 0x100008F50, symSize: 0x20 }
  - { offsetInCU: 0x11BDF, offset: 0x1E523, size: 0x8, addend: 0x0, symName: __ZNSt3__116reverse_iteratorIP4Vec3IfEEC1B7v160006ES3_, symObjAddr: 0x3AC0, symBinAddr: 0x100008FE0, symSize: 0x30 }
  - { offsetInCU: 0x11C17, offset: 0x1E55B, size: 0x8, addend: 0x0, symName: __ZNKSt3__116reverse_iteratorIP4Vec3IfEE4baseB7v160006Ev, symObjAddr: 0x3AF0, symBinAddr: 0x100009010, symSize: 0x20 }
  - { offsetInCU: 0x11C3D, offset: 0x1E581, size: 0x8, addend: 0x0, symName: __ZNKSt3__16vectorI4Vec3IfENS_9allocatorIS2_EEE14__annotate_newB7v160006Em, symObjAddr: 0x3B50, symBinAddr: 0x100009070, symSize: 0xA0 }
  - { offsetInCU: 0x11C95, offset: 0x1E5D9, size: 0x8, addend: 0x0, symName: __ZNKSt3__111__move_loopINS_17_ClassicAlgPolicyEEclB7v160006INS_16reverse_iteratorIP4Vec3IfEEES8_S8_EENS_4pairIT_T1_EESA_T0_SB_, symObjAddr: 0x4040, symBinAddr: 0x100009560, symSize: 0xA0 }
  - { offsetInCU: 0x11D05, offset: 0x1E649, size: 0x8, addend: 0x0, symName: __ZNSt3__18_IterOpsINS_17_ClassicAlgPolicyEE11__iter_moveB7v160006IRNS_16reverse_iteratorIP4Vec3IfEEEEENS_9enable_ifIXsr12is_referenceIDTdeclsr3stdE7declvalIRT_EEEEE5valueEDTclsr3stdE4movedeclsr3stdE7declvalISC_EEEEE4typeEOSB_, symObjAddr: 0x4260, symBinAddr: 0x100009780, symSize: 0x20 }
  - { offsetInCU: 0x11D31, offset: 0x1E675, size: 0x8, addend: 0x0, symName: __ZNKSt3__116reverse_iteratorIP4Vec3IfEEdeB7v160006Ev, symObjAddr: 0x4280, symBinAddr: 0x1000097A0, symSize: 0x30 }
  - { offsetInCU: 0x11D65, offset: 0x1E6A9, size: 0x8, addend: 0x0, symName: __ZNSt3__116reverse_iteratorIP4Vec3IfEEppB7v160006Ev, symObjAddr: 0x42B0, symBinAddr: 0x1000097D0, symSize: 0x20 }
  - { offsetInCU: 0x11D8B, offset: 0x1E6CF, size: 0x8, addend: 0x0, symName: __ZNSt3__18_IterOpsINS_17_ClassicAlgPolicyEE25__validate_iter_referenceB7v160006IRNS_16reverse_iteratorIP4Vec3IfEEEEEvv, symObjAddr: 0x42D0, symBinAddr: 0x1000097F0, symSize: 0x10 }
  - { offsetInCU: 0x11DA9, offset: 0x1E6ED, size: 0x8, addend: 0x0, symName: __ZNSt3__118__unwrap_iter_implINS_16reverse_iteratorIP4Vec3IfEEELb0EE8__unwrapB7v160006ES5_, symObjAddr: 0x42E0, symBinAddr: 0x100009800, symSize: 0x20 }
  - { offsetInCU: 0x11DD1, offset: 0x1E715, size: 0x8, addend: 0x0, symName: __ZNSt3__14pairINS_16reverse_iteratorIP4Vec3IfEEES5_EC1B7v160006IS5_S5_LPv0EEEOT_OT0_, symObjAddr: 0x4300, symBinAddr: 0x100009820, symSize: 0x30 }
  - { offsetInCU: 0x11E2F, offset: 0x1E773, size: 0x8, addend: 0x0, symName: __ZNSt3__14pairINS_16reverse_iteratorIP4Vec3IfEEES5_EC2B7v160006IS5_S5_LPv0EEEOT_OT0_, symObjAddr: 0x4330, symBinAddr: 0x100009850, symSize: 0x40 }
  - { offsetInCU: 0x11E8D, offset: 0x1E7D1, size: 0x8, addend: 0x0, symName: __ZNSt3__118__unwrap_iter_implINS_16reverse_iteratorIP4Vec3IfEEELb0EE8__rewrapB7v160006ES5_S5_, symObjAddr: 0x4370, symBinAddr: 0x100009890, symSize: 0x30 }
  - { offsetInCU: 0x11EBB, offset: 0x1E7FF, size: 0x8, addend: 0x0, symName: __ZNSt3__116reverse_iteratorIP4Vec3IfEEC2B7v160006ES3_, symObjAddr: 0x43A0, symBinAddr: 0x1000098C0, symSize: 0x30 }
  - { offsetInCU: 0x11EF3, offset: 0x1E837, size: 0x8, addend: 0x0, symName: __ZNSt3__114__split_bufferI4Vec3IfERNS_9allocatorIS2_EEED2Ev, symObjAddr: 0x43D0, symBinAddr: 0x1000098F0, symSize: 0x70 }
  - { offsetInCU: 0x11F1F, offset: 0x1E863, size: 0x8, addend: 0x0, symName: __ZNSt3__114__split_bufferI4Vec3IfERNS_9allocatorIS2_EEE5clearB7v160006Ev, symObjAddr: 0x4440, symBinAddr: 0x100009960, symSize: 0x20 }
  - { offsetInCU: 0x11F45, offset: 0x1E889, size: 0x8, addend: 0x0, symName: __ZNKSt3__114__split_bufferI4Vec3IfERNS_9allocatorIS2_EEE8capacityB7v160006Ev, symObjAddr: 0x4460, symBinAddr: 0x100009980, symSize: 0x40 }
  - { offsetInCU: 0x11F6B, offset: 0x1E8AF, size: 0x8, addend: 0x0, symName: __ZNSt3__114__split_bufferI4Vec3IfERNS_9allocatorIS2_EEE17__destruct_at_endB7v160006EPS2_, symObjAddr: 0x44A0, symBinAddr: 0x1000099C0, symSize: 0x30 }
  - { offsetInCU: 0x11F9E, offset: 0x1E8E2, size: 0x8, addend: 0x0, symName: __ZNSt3__114__split_bufferI4Vec3IfERNS_9allocatorIS2_EEE17__destruct_at_endB7v160006EPS2_NS_17integral_constantIbLb0EEE, symObjAddr: 0x44D0, symBinAddr: 0x1000099F0, symSize: 0x80 }
  - { offsetInCU: 0x11FE0, offset: 0x1E924, size: 0x8, addend: 0x0, symName: __ZNKSt3__114__split_bufferI4Vec3IfERNS_9allocatorIS2_EEE9__end_capB7v160006Ev, symObjAddr: 0x4550, symBinAddr: 0x100009A70, symSize: 0x20 }
  - { offsetInCU: 0x12006, offset: 0x1E94A, size: 0x8, addend: 0x0, symName: __ZNKSt3__117__compressed_pairIP4Vec3IfERNS_9allocatorIS2_EEE5firstB7v160006Ev, symObjAddr: 0x4570, symBinAddr: 0x100009A90, symSize: 0x20 }
  - { offsetInCU: 0x1202C, offset: 0x1E970, size: 0x8, addend: 0x0, symName: __ZNSt3__16vectorIiNS_9allocatorIiEEEC2B7v160006Ev, symObjAddr: 0x4590, symBinAddr: 0x100009AB0, symSize: 0x60 }
  - { offsetInCU: 0x12056, offset: 0x1E99A, size: 0x8, addend: 0x0, symName: __ZNSt3__117__compressed_pairIPiNS_9allocatorIiEEEC1B7v160006IDnNS_18__default_init_tagEEEOT_OT0_, symObjAddr: 0x45F0, symBinAddr: 0x100009B10, symSize: 0x30 }
  - { offsetInCU: 0x120AE, offset: 0x1E9F2, size: 0x8, addend: 0x0, symName: __ZNSt3__117__compressed_pairIPiNS_9allocatorIiEEEC2B7v160006IDnNS_18__default_init_tagEEEOT_OT0_, symObjAddr: 0x4630, symBinAddr: 0x100009B50, symSize: 0x40 }
  - { offsetInCU: 0x12106, offset: 0x1EA4A, size: 0x8, addend: 0x0, symName: __ZNSt3__122__compressed_pair_elemIPiLi0ELb0EEC2B7v160006IDnvEEOT_, symObjAddr: 0x4670, symBinAddr: 0x100009B90, symSize: 0x20 }
  - { offsetInCU: 0x12148, offset: 0x1EA8C, size: 0x8, addend: 0x0, symName: __ZNSt3__122__compressed_pair_elemINS_9allocatorIiEELi1ELb1EEC2B7v160006ENS_18__default_init_tagE, symObjAddr: 0x4690, symBinAddr: 0x100009BB0, symSize: 0x20 }
  - { offsetInCU: 0x1217D, offset: 0x1EAC1, size: 0x8, addend: 0x0, symName: __ZNSt3__19allocatorIiEC2B7v160006Ev, symObjAddr: 0x46B0, symBinAddr: 0x100009BD0, symSize: 0x20 }
  - { offsetInCU: 0x121A7, offset: 0x1EAEB, size: 0x8, addend: 0x0, symName: __ZNSt3__116__non_trivial_ifILb1ENS_9allocatorIiEEEC2B7v160006Ev, symObjAddr: 0x46D0, symBinAddr: 0x100009BF0, symSize: 0x10 }
  - { offsetInCU: 0x121D1, offset: 0x1EB15, size: 0x8, addend: 0x0, symName: __ZNSt3__16vectorIiNS_9allocatorIiEEE9__end_capB7v160006Ev, symObjAddr: 0x4B50, symBinAddr: 0x100009C00, symSize: 0x20 }
  - { offsetInCU: 0x121F7, offset: 0x1EB3B, size: 0x8, addend: 0x0, symName: __ZNSt3__16vectorIiNS_9allocatorIiEEE22__construct_one_at_endB7v160006IJRKiEEEvDpOT_, symObjAddr: 0x4B70, symBinAddr: 0x100009C20, symSize: 0x90 }
  - { offsetInCU: 0x12246, offset: 0x1EB8A, size: 0x8, addend: 0x0, symName: __ZNSt3__16vectorIiNS_9allocatorIiEEE21__push_back_slow_pathIRKiEEvOT_, symObjAddr: 0x4C00, symBinAddr: 0x100009CB0, symSize: 0xD0 }
  - { offsetInCU: 0x122A7, offset: 0x1EBEB, size: 0x8, addend: 0x0, symName: __ZNSt3__117__compressed_pairIPiNS_9allocatorIiEEE5firstB7v160006Ev, symObjAddr: 0x4CD0, symBinAddr: 0x100009D80, symSize: 0x20 }
  - { offsetInCU: 0x122CD, offset: 0x1EC11, size: 0x8, addend: 0x0, symName: __ZNSt3__122__compressed_pair_elemIPiLi0ELb0EE5__getB7v160006Ev, symObjAddr: 0x4CF0, symBinAddr: 0x100009DA0, symSize: 0x10 }
  - { offsetInCU: 0x1230C, offset: 0x1EC50, size: 0x8, addend: 0x0, symName: __ZNSt3__16vectorIiNS_9allocatorIiEEE21_ConstructTransactionC1B7v160006ERS3_m, symObjAddr: 0x4D00, symBinAddr: 0x100009DB0, symSize: 0x30 }
  - { offsetInCU: 0x12354, offset: 0x1EC98, size: 0x8, addend: 0x0, symName: __ZNSt3__116allocator_traitsINS_9allocatorIiEEE9constructB7v160006IiJRKiEvEEvRS2_PT_DpOT0_, symObjAddr: 0x4D30, symBinAddr: 0x100009DE0, symSize: 0x30 }
  - { offsetInCU: 0x123AB, offset: 0x1ECEF, size: 0x8, addend: 0x0, symName: __ZNSt3__16vectorIiNS_9allocatorIiEEE21_ConstructTransactionD1B7v160006Ev, symObjAddr: 0x4D60, symBinAddr: 0x100009E10, symSize: 0x20 }
  - { offsetInCU: 0x123D5, offset: 0x1ED19, size: 0x8, addend: 0x0, symName: __ZNSt3__16vectorIiNS_9allocatorIiEEE21_ConstructTransactionC2B7v160006ERS3_m, symObjAddr: 0x4D80, symBinAddr: 0x100009E30, symSize: 0x40 }
  - { offsetInCU: 0x1241D, offset: 0x1ED61, size: 0x8, addend: 0x0, symName: __ZNSt3__19allocatorIiE9constructB7v160006IiJRKiEEEvPT_DpOT0_, symObjAddr: 0x4DC0, symBinAddr: 0x100009E70, symSize: 0x20 }
  - { offsetInCU: 0x12473, offset: 0x1EDB7, size: 0x8, addend: 0x0, symName: __ZNSt3__16vectorIiNS_9allocatorIiEEE21_ConstructTransactionD2B7v160006Ev, symObjAddr: 0x4DE0, symBinAddr: 0x100009E90, symSize: 0x20 }
  - { offsetInCU: 0x1249C, offset: 0x1EDE0, size: 0x8, addend: 0x0, symName: __ZNKSt3__16vectorIiNS_9allocatorIiEEE11__recommendB7v160006Em, symObjAddr: 0x4E00, symBinAddr: 0x100009EB0, symSize: 0xA0 }
  - { offsetInCU: 0x124F4, offset: 0x1EE38, size: 0x8, addend: 0x0, symName: __ZNSt3__114__split_bufferIiRNS_9allocatorIiEEEC1EmmS3_, symObjAddr: 0x4EA0, symBinAddr: 0x100009F50, symSize: 0x40 }
  - { offsetInCU: 0x1254A, offset: 0x1EE8E, size: 0x8, addend: 0x0, symName: __ZNSt3__114__split_bufferIiRNS_9allocatorIiEEED1Ev, symObjAddr: 0x5010, symBinAddr: 0x10000A0C0, symSize: 0x20 }
  - { offsetInCU: 0x12575, offset: 0x1EEB9, size: 0x8, addend: 0x0, symName: __ZNKSt3__16vectorIiNS_9allocatorIiEEE8max_sizeEv, symObjAddr: 0x5030, symBinAddr: 0x10000A0E0, symSize: 0x60 }
  - { offsetInCU: 0x1259E, offset: 0x1EEE2, size: 0x8, addend: 0x0, symName: __ZNKSt3__16vectorIiNS_9allocatorIiEEE20__throw_length_errorB7v160006Ev, symObjAddr: 0x5090, symBinAddr: 0x10000A140, symSize: 0x20 }
  - { offsetInCU: 0x125CE, offset: 0x1EF12, size: 0x8, addend: 0x0, symName: __ZNSt3__116allocator_traitsINS_9allocatorIiEEE8max_sizeB7v160006IS2_vEEmRKS2_, symObjAddr: 0x50B0, symBinAddr: 0x10000A160, symSize: 0x20 }
  - { offsetInCU: 0x125FC, offset: 0x1EF40, size: 0x8, addend: 0x0, symName: __ZNKSt3__16vectorIiNS_9allocatorIiEEE7__allocB7v160006Ev, symObjAddr: 0x50D0, symBinAddr: 0x10000A180, symSize: 0x20 }
  - { offsetInCU: 0x12622, offset: 0x1EF66, size: 0x8, addend: 0x0, symName: __ZNKSt3__19allocatorIiE8max_sizeB7v160006Ev, symObjAddr: 0x50F0, symBinAddr: 0x10000A1A0, symSize: 0x20 }
  - { offsetInCU: 0x12648, offset: 0x1EF8C, size: 0x8, addend: 0x0, symName: __ZNKSt3__117__compressed_pairIPiNS_9allocatorIiEEE6secondB7v160006Ev, symObjAddr: 0x5110, symBinAddr: 0x10000A1C0, symSize: 0x20 }
  - { offsetInCU: 0x1266E, offset: 0x1EFB2, size: 0x8, addend: 0x0, symName: __ZNKSt3__122__compressed_pair_elemINS_9allocatorIiEELi1ELb1EE5__getB7v160006Ev, symObjAddr: 0x5130, symBinAddr: 0x10000A1E0, symSize: 0x10 }
  - { offsetInCU: 0x12694, offset: 0x1EFD8, size: 0x8, addend: 0x0, symName: __ZNSt3__114__split_bufferIiRNS_9allocatorIiEEEC2EmmS3_, symObjAddr: 0x5140, symBinAddr: 0x10000A1F0, symSize: 0xD0 }
  - { offsetInCU: 0x12709, offset: 0x1F04D, size: 0x8, addend: 0x0, symName: __ZNSt3__117__compressed_pairIPiRNS_9allocatorIiEEEC1B7v160006IDnS4_EEOT_OT0_, symObjAddr: 0x5210, symBinAddr: 0x10000A2C0, symSize: 0x30 }
  - { offsetInCU: 0x12761, offset: 0x1F0A5, size: 0x8, addend: 0x0, symName: __ZNSt3__114__split_bufferIiRNS_9allocatorIiEEE7__allocB7v160006Ev, symObjAddr: 0x5280, symBinAddr: 0x10000A330, symSize: 0x20 }
  - { offsetInCU: 0x12787, offset: 0x1F0CB, size: 0x8, addend: 0x0, symName: __ZNSt3__114__split_bufferIiRNS_9allocatorIiEEE9__end_capB7v160006Ev, symObjAddr: 0x52A0, symBinAddr: 0x10000A350, symSize: 0x20 }
  - { offsetInCU: 0x127AD, offset: 0x1F0F1, size: 0x8, addend: 0x0, symName: __ZNSt3__117__compressed_pairIPiRNS_9allocatorIiEEEC2B7v160006IDnS4_EEOT_OT0_, symObjAddr: 0x52C0, symBinAddr: 0x10000A370, symSize: 0x40 }
  - { offsetInCU: 0x12805, offset: 0x1F149, size: 0x8, addend: 0x0, symName: __ZNSt3__122__compressed_pair_elemIRNS_9allocatorIiEELi1ELb0EEC2B7v160006IS3_vEEOT_, symObjAddr: 0x5300, symBinAddr: 0x10000A3B0, symSize: 0x20 }
  - { offsetInCU: 0x12847, offset: 0x1F18B, size: 0x8, addend: 0x0, symName: __ZNSt3__19allocatorIiE8allocateB7v160006Em, symObjAddr: 0x5320, symBinAddr: 0x10000A3D0, symSize: 0x50 }
  - { offsetInCU: 0x1287B, offset: 0x1F1BF, size: 0x8, addend: 0x0, symName: __ZNSt3__117__compressed_pairIPiRNS_9allocatorIiEEE6secondB7v160006Ev, symObjAddr: 0x5370, symBinAddr: 0x10000A420, symSize: 0x20 }
  - { offsetInCU: 0x128A1, offset: 0x1F1E5, size: 0x8, addend: 0x0, symName: __ZNSt3__122__compressed_pair_elemIRNS_9allocatorIiEELi1ELb0EE5__getB7v160006Ev, symObjAddr: 0x5390, symBinAddr: 0x10000A440, symSize: 0x20 }
  - { offsetInCU: 0x128C7, offset: 0x1F20B, size: 0x8, addend: 0x0, symName: __ZNSt3__117__compressed_pairIPiRNS_9allocatorIiEEE5firstB7v160006Ev, symObjAddr: 0x53B0, symBinAddr: 0x10000A460, symSize: 0x20 }
  - { offsetInCU: 0x128ED, offset: 0x1F231, size: 0x8, addend: 0x0, symName: __ZNSt3__116reverse_iteratorIPiEC1B7v160006ES1_, symObjAddr: 0x5440, symBinAddr: 0x10000A4F0, symSize: 0x30 }
  - { offsetInCU: 0x12925, offset: 0x1F269, size: 0x8, addend: 0x0, symName: __ZNKSt3__116reverse_iteratorIPiE4baseB7v160006Ev, symObjAddr: 0x5470, symBinAddr: 0x10000A520, symSize: 0x20 }
  - { offsetInCU: 0x1294B, offset: 0x1F28F, size: 0x8, addend: 0x0, symName: __ZNKSt3__16vectorIiNS_9allocatorIiEEE14__annotate_newB7v160006Em, symObjAddr: 0x54D0, symBinAddr: 0x10000A580, symSize: 0xB0 }
  - { offsetInCU: 0x12999, offset: 0x1F2DD, size: 0x8, addend: 0x0, symName: __ZNKSt3__111__move_loopINS_17_ClassicAlgPolicyEEclB7v160006INS_16reverse_iteratorIPiEES6_S6_EENS_4pairIT_T1_EES8_T0_S9_, symObjAddr: 0x59D0, symBinAddr: 0x10000AA80, symSize: 0xA0 }
  - { offsetInCU: 0x12A09, offset: 0x1F34D, size: 0x8, addend: 0x0, symName: __ZNSt3__18_IterOpsINS_17_ClassicAlgPolicyEE11__iter_moveB7v160006IRNS_16reverse_iteratorIPiEEEENS_9enable_ifIXsr12is_referenceIDTdeclsr3stdE7declvalIRT_EEEEE5valueEDTclsr3stdE4movedeclsr3stdE7declvalISA_EEEEE4typeEOS9_, symObjAddr: 0x5BF0, symBinAddr: 0x10000ACA0, symSize: 0x20 }
  - { offsetInCU: 0x12A35, offset: 0x1F379, size: 0x8, addend: 0x0, symName: __ZNKSt3__116reverse_iteratorIPiEdeB7v160006Ev, symObjAddr: 0x5C10, symBinAddr: 0x10000ACC0, symSize: 0x30 }
  - { offsetInCU: 0x12A69, offset: 0x1F3AD, size: 0x8, addend: 0x0, symName: __ZNSt3__116reverse_iteratorIPiEppB7v160006Ev, symObjAddr: 0x5C40, symBinAddr: 0x10000ACF0, symSize: 0x20 }
  - { offsetInCU: 0x12A8F, offset: 0x1F3D3, size: 0x8, addend: 0x0, symName: __ZNSt3__18_IterOpsINS_17_ClassicAlgPolicyEE25__validate_iter_referenceB7v160006IRNS_16reverse_iteratorIPiEEEEvv, symObjAddr: 0x5C60, symBinAddr: 0x10000AD10, symSize: 0x10 }
  - { offsetInCU: 0x12AAD, offset: 0x1F3F1, size: 0x8, addend: 0x0, symName: __ZNSt3__118__unwrap_iter_implINS_16reverse_iteratorIPiEELb0EE8__unwrapB7v160006ES3_, symObjAddr: 0x5C70, symBinAddr: 0x10000AD20, symSize: 0x20 }
  - { offsetInCU: 0x12AD5, offset: 0x1F419, size: 0x8, addend: 0x0, symName: __ZNSt3__14pairINS_16reverse_iteratorIPiEES3_EC1B7v160006IS3_S3_LPv0EEEOT_OT0_, symObjAddr: 0x5C90, symBinAddr: 0x10000AD40, symSize: 0x30 }
  - { offsetInCU: 0x12B33, offset: 0x1F477, size: 0x8, addend: 0x0, symName: __ZNSt3__14pairINS_16reverse_iteratorIPiEES3_EC2B7v160006IS3_S3_LPv0EEEOT_OT0_, symObjAddr: 0x5CC0, symBinAddr: 0x10000AD70, symSize: 0x40 }
  - { offsetInCU: 0x12B91, offset: 0x1F4D5, size: 0x8, addend: 0x0, symName: __ZNSt3__118__unwrap_iter_implINS_16reverse_iteratorIPiEELb0EE8__rewrapB7v160006ES3_S3_, symObjAddr: 0x5D00, symBinAddr: 0x10000ADB0, symSize: 0x30 }
  - { offsetInCU: 0x12BBF, offset: 0x1F503, size: 0x8, addend: 0x0, symName: __ZNSt3__116reverse_iteratorIPiEC2B7v160006ES1_, symObjAddr: 0x5D30, symBinAddr: 0x10000ADE0, symSize: 0x30 }
  - { offsetInCU: 0x12BF7, offset: 0x1F53B, size: 0x8, addend: 0x0, symName: __ZNSt3__114__split_bufferIiRNS_9allocatorIiEEED2Ev, symObjAddr: 0x5D60, symBinAddr: 0x10000AE10, symSize: 0x70 }
  - { offsetInCU: 0x12C23, offset: 0x1F567, size: 0x8, addend: 0x0, symName: __ZNSt3__114__split_bufferIiRNS_9allocatorIiEEE5clearB7v160006Ev, symObjAddr: 0x5DD0, symBinAddr: 0x10000AE80, symSize: 0x20 }
  - { offsetInCU: 0x12C49, offset: 0x1F58D, size: 0x8, addend: 0x0, symName: __ZNKSt3__114__split_bufferIiRNS_9allocatorIiEEE8capacityB7v160006Ev, symObjAddr: 0x5DF0, symBinAddr: 0x10000AEA0, symSize: 0x30 }
  - { offsetInCU: 0x12C6F, offset: 0x1F5B3, size: 0x8, addend: 0x0, symName: __ZNSt3__114__split_bufferIiRNS_9allocatorIiEEE17__destruct_at_endB7v160006EPi, symObjAddr: 0x5E20, symBinAddr: 0x10000AED0, symSize: 0x30 }
  - { offsetInCU: 0x12CA2, offset: 0x1F5E6, size: 0x8, addend: 0x0, symName: __ZNSt3__114__split_bufferIiRNS_9allocatorIiEEE17__destruct_at_endB7v160006EPiNS_17integral_constantIbLb0EEE, symObjAddr: 0x5E50, symBinAddr: 0x10000AF00, symSize: 0x80 }
  - { offsetInCU: 0x12CE4, offset: 0x1F628, size: 0x8, addend: 0x0, symName: __ZNKSt3__114__split_bufferIiRNS_9allocatorIiEEE9__end_capB7v160006Ev, symObjAddr: 0x5ED0, symBinAddr: 0x10000AF80, symSize: 0x20 }
  - { offsetInCU: 0x12D0A, offset: 0x1F64E, size: 0x8, addend: 0x0, symName: __ZNKSt3__117__compressed_pairIPiRNS_9allocatorIiEEE5firstB7v160006Ev, symObjAddr: 0x5EF0, symBinAddr: 0x10000AFA0, symSize: 0x20 }
  - { offsetInCU: 0x12D30, offset: 0x1F674, size: 0x8, addend: 0x0, symName: __ZNSt3__16vectorINS0_IiNS_9allocatorIiEEEENS1_IS3_EEE9__end_capB7v160006Ev, symObjAddr: 0x5F10, symBinAddr: 0x10000AFC0, symSize: 0x20 }
  - { offsetInCU: 0x12D56, offset: 0x1F69A, size: 0x8, addend: 0x0, symName: __ZNSt3__16vectorINS0_IiNS_9allocatorIiEEEENS1_IS3_EEE22__construct_one_at_endB7v160006IJRKS3_EEEvDpOT_, symObjAddr: 0x5F30, symBinAddr: 0x10000AFE0, symSize: 0x90 }
  - { offsetInCU: 0x12DA5, offset: 0x1F6E9, size: 0x8, addend: 0x0, symName: __ZNSt3__16vectorINS0_IiNS_9allocatorIiEEEENS1_IS3_EEE21__push_back_slow_pathIRKS3_EEvOT_, symObjAddr: 0x5FC0, symBinAddr: 0x10000B070, symSize: 0xD0 }
  - { offsetInCU: 0x12E06, offset: 0x1F74A, size: 0x8, addend: 0x0, symName: __ZNSt3__117__compressed_pairIPNS_6vectorIiNS_9allocatorIiEEEENS2_IS4_EEE5firstB7v160006Ev, symObjAddr: 0x6090, symBinAddr: 0x10000B140, symSize: 0x20 }
  - { offsetInCU: 0x12E2C, offset: 0x1F770, size: 0x8, addend: 0x0, symName: __ZNSt3__122__compressed_pair_elemIPNS_6vectorIiNS_9allocatorIiEEEELi0ELb0EE5__getB7v160006Ev, symObjAddr: 0x60B0, symBinAddr: 0x10000B160, symSize: 0x10 }
  - { offsetInCU: 0x12E6B, offset: 0x1F7AF, size: 0x8, addend: 0x0, symName: __ZNSt3__16vectorINS0_IiNS_9allocatorIiEEEENS1_IS3_EEE21_ConstructTransactionC1B7v160006ERS5_m, symObjAddr: 0x60C0, symBinAddr: 0x10000B170, symSize: 0x30 }
  - { offsetInCU: 0x12EB3, offset: 0x1F7F7, size: 0x8, addend: 0x0, symName: __ZNSt3__116allocator_traitsINS_9allocatorINS_6vectorIiNS1_IiEEEEEEE9constructB7v160006IS4_JRKS4_EvEEvRS5_PT_DpOT0_, symObjAddr: 0x60F0, symBinAddr: 0x10000B1A0, symSize: 0x30 }
  - { offsetInCU: 0x12F0A, offset: 0x1F84E, size: 0x8, addend: 0x0, symName: __ZNSt3__16vectorINS0_IiNS_9allocatorIiEEEENS1_IS3_EEE21_ConstructTransactionD1B7v160006Ev, symObjAddr: 0x6120, symBinAddr: 0x10000B1D0, symSize: 0x20 }
  - { offsetInCU: 0x12F34, offset: 0x1F878, size: 0x8, addend: 0x0, symName: __ZNSt3__16vectorINS0_IiNS_9allocatorIiEEEENS1_IS3_EEE21_ConstructTransactionC2B7v160006ERS5_m, symObjAddr: 0x6140, symBinAddr: 0x10000B1F0, symSize: 0x40 }
  - { offsetInCU: 0x12F7C, offset: 0x1F8C0, size: 0x8, addend: 0x0, symName: __ZNSt3__19allocatorINS_6vectorIiNS0_IiEEEEE9constructB7v160006IS3_JRKS3_EEEvPT_DpOT0_, symObjAddr: 0x6180, symBinAddr: 0x10000B230, symSize: 0x30 }
  - { offsetInCU: 0x12FD2, offset: 0x1F916, size: 0x8, addend: 0x0, symName: __ZNSt3__16vectorINS0_IiNS_9allocatorIiEEEENS1_IS3_EEE21_ConstructTransactionD2B7v160006Ev, symObjAddr: 0x61B0, symBinAddr: 0x10000B260, symSize: 0x20 }
  - { offsetInCU: 0x12FFB, offset: 0x1F93F, size: 0x8, addend: 0x0, symName: __ZNKSt3__16vectorINS0_IiNS_9allocatorIiEEEENS1_IS3_EEE11__recommendB7v160006Em, symObjAddr: 0x61D0, symBinAddr: 0x10000B280, symSize: 0xA0 }
  - { offsetInCU: 0x13053, offset: 0x1F997, size: 0x8, addend: 0x0, symName: __ZNSt3__114__split_bufferINS_6vectorIiNS_9allocatorIiEEEERNS2_IS4_EEEC1EmmS6_, symObjAddr: 0x6270, symBinAddr: 0x10000B320, symSize: 0x40 }
  - { offsetInCU: 0x130A9, offset: 0x1F9ED, size: 0x8, addend: 0x0, symName: __ZNSt3__114__split_bufferINS_6vectorIiNS_9allocatorIiEEEERNS2_IS4_EEED1Ev, symObjAddr: 0x63E0, symBinAddr: 0x10000B490, symSize: 0x20 }
  - { offsetInCU: 0x130D4, offset: 0x1FA18, size: 0x8, addend: 0x0, symName: __ZNKSt3__16vectorINS0_IiNS_9allocatorIiEEEENS1_IS3_EEE8max_sizeEv, symObjAddr: 0x6400, symBinAddr: 0x10000B4B0, symSize: 0x60 }
  - { offsetInCU: 0x130FD, offset: 0x1FA41, size: 0x8, addend: 0x0, symName: __ZNKSt3__16vectorINS0_IiNS_9allocatorIiEEEENS1_IS3_EEE20__throw_length_errorB7v160006Ev, symObjAddr: 0x6460, symBinAddr: 0x10000B510, symSize: 0x20 }
  - { offsetInCU: 0x1312D, offset: 0x1FA71, size: 0x8, addend: 0x0, symName: __ZNSt3__116allocator_traitsINS_9allocatorINS_6vectorIiNS1_IiEEEEEEE8max_sizeB7v160006IS5_vEEmRKS5_, symObjAddr: 0x6480, symBinAddr: 0x10000B530, symSize: 0x20 }
  - { offsetInCU: 0x1315B, offset: 0x1FA9F, size: 0x8, addend: 0x0, symName: __ZNKSt3__16vectorINS0_IiNS_9allocatorIiEEEENS1_IS3_EEE7__allocB7v160006Ev, symObjAddr: 0x64A0, symBinAddr: 0x10000B550, symSize: 0x20 }
  - { offsetInCU: 0x13181, offset: 0x1FAC5, size: 0x8, addend: 0x0, symName: __ZNKSt3__19allocatorINS_6vectorIiNS0_IiEEEEE8max_sizeB7v160006Ev, symObjAddr: 0x64C0, symBinAddr: 0x10000B570, symSize: 0x20 }
  - { offsetInCU: 0x131A7, offset: 0x1FAEB, size: 0x8, addend: 0x0, symName: __ZNKSt3__117__compressed_pairIPNS_6vectorIiNS_9allocatorIiEEEENS2_IS4_EEE6secondB7v160006Ev, symObjAddr: 0x64E0, symBinAddr: 0x10000B590, symSize: 0x20 }
  - { offsetInCU: 0x131CD, offset: 0x1FB11, size: 0x8, addend: 0x0, symName: __ZNKSt3__122__compressed_pair_elemINS_9allocatorINS_6vectorIiNS1_IiEEEEEELi1ELb1EE5__getB7v160006Ev, symObjAddr: 0x6500, symBinAddr: 0x10000B5B0, symSize: 0x10 }
  - { offsetInCU: 0x131F3, offset: 0x1FB37, size: 0x8, addend: 0x0, symName: __ZNSt3__114__split_bufferINS_6vectorIiNS_9allocatorIiEEEERNS2_IS4_EEEC2EmmS6_, symObjAddr: 0x6510, symBinAddr: 0x10000B5C0, symSize: 0xC0 }
  - { offsetInCU: 0x13268, offset: 0x1FBAC, size: 0x8, addend: 0x0, symName: __ZNSt3__117__compressed_pairIPNS_6vectorIiNS_9allocatorIiEEEERNS2_IS4_EEEC1B7v160006IDnS7_EEOT_OT0_, symObjAddr: 0x65D0, symBinAddr: 0x10000B680, symSize: 0x30 }
  - { offsetInCU: 0x132C0, offset: 0x1FC04, size: 0x8, addend: 0x0, symName: __ZNSt3__114__split_bufferINS_6vectorIiNS_9allocatorIiEEEERNS2_IS4_EEE7__allocB7v160006Ev, symObjAddr: 0x6640, symBinAddr: 0x10000B6F0, symSize: 0x20 }
  - { offsetInCU: 0x132E6, offset: 0x1FC2A, size: 0x8, addend: 0x0, symName: __ZNSt3__114__split_bufferINS_6vectorIiNS_9allocatorIiEEEERNS2_IS4_EEE9__end_capB7v160006Ev, symObjAddr: 0x6660, symBinAddr: 0x10000B710, symSize: 0x20 }
  - { offsetInCU: 0x1330C, offset: 0x1FC50, size: 0x8, addend: 0x0, symName: __ZNSt3__117__compressed_pairIPNS_6vectorIiNS_9allocatorIiEEEERNS2_IS4_EEEC2B7v160006IDnS7_EEOT_OT0_, symObjAddr: 0x6680, symBinAddr: 0x10000B730, symSize: 0x40 }
  - { offsetInCU: 0x13364, offset: 0x1FCA8, size: 0x8, addend: 0x0, symName: __ZNSt3__122__compressed_pair_elemIRNS_9allocatorINS_6vectorIiNS1_IiEEEEEELi1ELb0EEC2B7v160006IS6_vEEOT_, symObjAddr: 0x66C0, symBinAddr: 0x10000B770, symSize: 0x20 }
  - { offsetInCU: 0x133A6, offset: 0x1FCEA, size: 0x8, addend: 0x0, symName: __ZNSt3__19allocatorINS_6vectorIiNS0_IiEEEEE8allocateB7v160006Em, symObjAddr: 0x66E0, symBinAddr: 0x10000B790, symSize: 0x50 }
  - { offsetInCU: 0x133DA, offset: 0x1FD1E, size: 0x8, addend: 0x0, symName: __ZNSt3__117__compressed_pairIPNS_6vectorIiNS_9allocatorIiEEEERNS2_IS4_EEE6secondB7v160006Ev, symObjAddr: 0x6730, symBinAddr: 0x10000B7E0, symSize: 0x20 }
  - { offsetInCU: 0x13400, offset: 0x1FD44, size: 0x8, addend: 0x0, symName: __ZNSt3__122__compressed_pair_elemIRNS_9allocatorINS_6vectorIiNS1_IiEEEEEELi1ELb0EE5__getB7v160006Ev, symObjAddr: 0x6750, symBinAddr: 0x10000B800, symSize: 0x20 }
  - { offsetInCU: 0x13426, offset: 0x1FD6A, size: 0x8, addend: 0x0, symName: __ZNSt3__117__compressed_pairIPNS_6vectorIiNS_9allocatorIiEEEERNS2_IS4_EEE5firstB7v160006Ev, symObjAddr: 0x6770, symBinAddr: 0x10000B820, symSize: 0x20 }
  - { offsetInCU: 0x1344C, offset: 0x1FD90, size: 0x8, addend: 0x0, symName: __ZNSt3__116reverse_iteratorIPNS_6vectorIiNS_9allocatorIiEEEEEC1B7v160006ES5_, symObjAddr: 0x6910, symBinAddr: 0x10000B9C0, symSize: 0x30 }
  - { offsetInCU: 0x13484, offset: 0x1FDC8, size: 0x8, addend: 0x0, symName: __ZNKSt3__116reverse_iteratorIPNS_6vectorIiNS_9allocatorIiEEEEE4baseB7v160006Ev, symObjAddr: 0x6940, symBinAddr: 0x10000B9F0, symSize: 0x20 }
  - { offsetInCU: 0x134AA, offset: 0x1FDEE, size: 0x8, addend: 0x0, symName: __ZNKSt3__16vectorINS0_IiNS_9allocatorIiEEEENS1_IS3_EEE14__annotate_newB7v160006Em, symObjAddr: 0x69A0, symBinAddr: 0x10000BA50, symSize: 0xA0 }
  - { offsetInCU: 0x134DF, offset: 0x1FE23, size: 0x8, addend: 0x0, symName: __ZNSt3__129_AllocatorDestroyRangeReverseINS_9allocatorINS_6vectorIiNS1_IiEEEEEENS_16reverse_iteratorIPS4_EEEC1B7v160006ERS5_RS8_SB_, symObjAddr: 0x6AB0, symBinAddr: 0x10000BB60, symSize: 0x40 }
  - { offsetInCU: 0x13536, offset: 0x1FE7A, size: 0x8, addend: 0x0, symName: __ZNSt3__116allocator_traitsINS_9allocatorINS_6vectorIiNS1_IiEEEEEEE9constructB7v160006IS4_JS4_EvEEvRS5_PT_DpOT0_, symObjAddr: 0x6B30, symBinAddr: 0x10000BBE0, symSize: 0x30 }
  - { offsetInCU: 0x1358D, offset: 0x1FED1, size: 0x8, addend: 0x0, symName: __ZNKSt3__116reverse_iteratorIPNS_6vectorIiNS_9allocatorIiEEEEEdeB7v160006Ev, symObjAddr: 0x6B80, symBinAddr: 0x10000BC30, symSize: 0x30 }
  - { offsetInCU: 0x135C1, offset: 0x1FF05, size: 0x8, addend: 0x0, symName: __ZNSt3__116reverse_iteratorIPNS_6vectorIiNS_9allocatorIiEEEEEppB7v160006Ev, symObjAddr: 0x6BB0, symBinAddr: 0x10000BC60, symSize: 0x20 }
  - { offsetInCU: 0x135E7, offset: 0x1FF2B, size: 0x8, addend: 0x0, symName: __ZNSt3__128__exception_guard_exceptionsINS_29_AllocatorDestroyRangeReverseINS_9allocatorINS_6vectorIiNS2_IiEEEEEENS_16reverse_iteratorIPS5_EEEEE10__completeB7v160006Ev, symObjAddr: 0x6BD0, symBinAddr: 0x10000BC80, symSize: 0x20 }
  - { offsetInCU: 0x1360D, offset: 0x1FF51, size: 0x8, addend: 0x0, symName: __ZNSt3__128__exception_guard_exceptionsINS_29_AllocatorDestroyRangeReverseINS_9allocatorINS_6vectorIiNS2_IiEEEEEENS_16reverse_iteratorIPS5_EEEEED1B7v160006Ev, symObjAddr: 0x6BF0, symBinAddr: 0x10000BCA0, symSize: 0x20 }
  - { offsetInCU: 0x13637, offset: 0x1FF7B, size: 0x8, addend: 0x0, symName: __ZNSt3__128__exception_guard_exceptionsINS_29_AllocatorDestroyRangeReverseINS_9allocatorINS_6vectorIiNS2_IiEEEEEENS_16reverse_iteratorIPS5_EEEEEC1B7v160006ESA_, symObjAddr: 0x6C10, symBinAddr: 0x10000BCC0, symSize: 0x40 }
  - { offsetInCU: 0x1366F, offset: 0x1FFB3, size: 0x8, addend: 0x0, symName: __ZNSt3__128__exception_guard_exceptionsINS_29_AllocatorDestroyRangeReverseINS_9allocatorINS_6vectorIiNS2_IiEEEEEENS_16reverse_iteratorIPS5_EEEEEC2B7v160006ESA_, symObjAddr: 0x6C50, symBinAddr: 0x10000BD00, symSize: 0x30 }
  - { offsetInCU: 0x136A7, offset: 0x1FFEB, size: 0x8, addend: 0x0, symName: __ZNSt3__129_AllocatorDestroyRangeReverseINS_9allocatorINS_6vectorIiNS1_IiEEEEEENS_16reverse_iteratorIPS4_EEEC2B7v160006ERS5_RS8_SB_, symObjAddr: 0x6C80, symBinAddr: 0x10000BD30, symSize: 0x40 }
  - { offsetInCU: 0x136FE, offset: 0x20042, size: 0x8, addend: 0x0, symName: __ZNSt3__19allocatorINS_6vectorIiNS0_IiEEEEE9constructB7v160006IS3_JS3_EEEvPT_DpOT0_, symObjAddr: 0x6CC0, symBinAddr: 0x10000BD70, symSize: 0x30 }
  - { offsetInCU: 0x13754, offset: 0x20098, size: 0x8, addend: 0x0, symName: __ZNSt3__16vectorIiNS_9allocatorIiEEEC1B7v160006EOS3_, symObjAddr: 0x6CF0, symBinAddr: 0x10000BDA0, symSize: 0x30 }
  - { offsetInCU: 0x1378F, offset: 0x200D3, size: 0x8, addend: 0x0, symName: __ZNSt3__16vectorIiNS_9allocatorIiEEEC2B7v160006EOS3_, symObjAddr: 0x6D20, symBinAddr: 0x10000BDD0, symSize: 0xE0 }
  - { offsetInCU: 0x137CF, offset: 0x20113, size: 0x8, addend: 0x0, symName: __ZNSt3__117__compressed_pairIPiNS_9allocatorIiEEEC1B7v160006IDnS3_EEOT_OT0_, symObjAddr: 0x6E00, symBinAddr: 0x10000BEB0, symSize: 0x30 }
  - { offsetInCU: 0x13827, offset: 0x2016B, size: 0x8, addend: 0x0, symName: __ZNSt3__117__compressed_pairIPiNS_9allocatorIiEEEC2B7v160006IDnS3_EEOT_OT0_, symObjAddr: 0x6E40, symBinAddr: 0x10000BEF0, symSize: 0x40 }
  - { offsetInCU: 0x1387F, offset: 0x201C3, size: 0x8, addend: 0x0, symName: __ZNSt3__122__compressed_pair_elemINS_9allocatorIiEELi1ELb1EEC2B7v160006IS2_vEEOT_, symObjAddr: 0x6E80, symBinAddr: 0x10000BF30, symSize: 0x10 }
  - { offsetInCU: 0x138C6, offset: 0x2020A, size: 0x8, addend: 0x0, symName: __ZNSt3__119__to_address_helperINS_16reverse_iteratorIPNS_6vectorIiNS_9allocatorIiEEEEEEvE6__callB7v160006ERKS7_, symObjAddr: 0x6E90, symBinAddr: 0x10000BF40, symSize: 0x40 }
  - { offsetInCU: 0x138E9, offset: 0x2022D, size: 0x8, addend: 0x0, symName: __ZNKSt3__116reverse_iteratorIPNS_6vectorIiNS_9allocatorIiEEEEEptB7v160006Ev, symObjAddr: 0x6ED0, symBinAddr: 0x10000BF80, symSize: 0x20 }
  - { offsetInCU: 0x1390F, offset: 0x20253, size: 0x8, addend: 0x0, symName: __ZNSt3__128__exception_guard_exceptionsINS_29_AllocatorDestroyRangeReverseINS_9allocatorINS_6vectorIiNS2_IiEEEEEENS_16reverse_iteratorIPS5_EEEEED2B7v160006Ev, symObjAddr: 0x6EF0, symBinAddr: 0x10000BFA0, symSize: 0x40 }
  - { offsetInCU: 0x13939, offset: 0x2027D, size: 0x8, addend: 0x0, symName: __ZNKSt3__129_AllocatorDestroyRangeReverseINS_9allocatorINS_6vectorIiNS1_IiEEEEEENS_16reverse_iteratorIPS4_EEEclB7v160006Ev, symObjAddr: 0x6F30, symBinAddr: 0x10000BFE0, symSize: 0xF0 }
  - { offsetInCU: 0x13960, offset: 0x202A4, size: 0x8, addend: 0x0, symName: __ZNSt3__116reverse_iteratorINS0_IPNS_6vectorIiNS_9allocatorIiEEEEEEEC1B7v160006ES6_, symObjAddr: 0x7090, symBinAddr: 0x10000C140, symSize: 0x30 }
  - { offsetInCU: 0x13998, offset: 0x202DC, size: 0x8, addend: 0x0, symName: __ZNSt3__116reverse_iteratorINS0_IPNS_6vectorIiNS_9allocatorIiEEEEEEEppB7v160006Ev, symObjAddr: 0x7130, symBinAddr: 0x10000C1E0, symSize: 0x30 }
  - { offsetInCU: 0x139BE, offset: 0x20302, size: 0x8, addend: 0x0, symName: __ZNKSt3__116reverse_iteratorINS0_IPNS_6vectorIiNS_9allocatorIiEEEEEEE4baseB7v160006Ev, symObjAddr: 0x7160, symBinAddr: 0x10000C210, symSize: 0x20 }
  - { offsetInCU: 0x139E9, offset: 0x2032D, size: 0x8, addend: 0x0, symName: __ZNSt3__119__to_address_helperINS_16reverse_iteratorINS1_IPNS_6vectorIiNS_9allocatorIiEEEEEEEEvE6__callB7v160006ERKS8_, symObjAddr: 0x7180, symBinAddr: 0x10000C230, symSize: 0x40 }
  - { offsetInCU: 0x13A0C, offset: 0x20350, size: 0x8, addend: 0x0, symName: __ZNKSt3__116reverse_iteratorINS0_IPNS_6vectorIiNS_9allocatorIiEEEEEEEptB7v160006Ev, symObjAddr: 0x71C0, symBinAddr: 0x10000C270, symSize: 0x20 }
  - { offsetInCU: 0x13A32, offset: 0x20376, size: 0x8, addend: 0x0, symName: __ZNKSt3__116reverse_iteratorINS0_IPNS_6vectorIiNS_9allocatorIiEEEEEEEdeB7v160006Ev, symObjAddr: 0x71E0, symBinAddr: 0x10000C290, symSize: 0x40 }
  - { offsetInCU: 0x13A66, offset: 0x203AA, size: 0x8, addend: 0x0, symName: __ZNSt3__116reverse_iteratorIPNS_6vectorIiNS_9allocatorIiEEEEEmmB7v160006Ev, symObjAddr: 0x7220, symBinAddr: 0x10000C2D0, symSize: 0x20 }
  - { offsetInCU: 0x13A8C, offset: 0x203D0, size: 0x8, addend: 0x0, symName: __ZNSt3__116reverse_iteratorINS0_IPNS_6vectorIiNS_9allocatorIiEEEEEEEC2B7v160006ES6_, symObjAddr: 0x7240, symBinAddr: 0x10000C2F0, symSize: 0x40 }
  - { offsetInCU: 0x13AC4, offset: 0x20408, size: 0x8, addend: 0x0, symName: __ZNSt3__116reverse_iteratorIPNS_6vectorIiNS_9allocatorIiEEEEEC2B7v160006ES5_, symObjAddr: 0x7280, symBinAddr: 0x10000C330, symSize: 0x30 }
  - { offsetInCU: 0x13AFC, offset: 0x20440, size: 0x8, addend: 0x0, symName: __ZNSt3__114__split_bufferINS_6vectorIiNS_9allocatorIiEEEERNS2_IS4_EEED2Ev, symObjAddr: 0x72B0, symBinAddr: 0x10000C360, symSize: 0x70 }
  - { offsetInCU: 0x13B28, offset: 0x2046C, size: 0x8, addend: 0x0, symName: __ZNSt3__114__split_bufferINS_6vectorIiNS_9allocatorIiEEEERNS2_IS4_EEE5clearB7v160006Ev, symObjAddr: 0x7320, symBinAddr: 0x10000C3D0, symSize: 0x20 }
  - { offsetInCU: 0x13B4E, offset: 0x20492, size: 0x8, addend: 0x0, symName: __ZNKSt3__114__split_bufferINS_6vectorIiNS_9allocatorIiEEEERNS2_IS4_EEE8capacityB7v160006Ev, symObjAddr: 0x7340, symBinAddr: 0x10000C3F0, symSize: 0x40 }
  - { offsetInCU: 0x13B74, offset: 0x204B8, size: 0x8, addend: 0x0, symName: __ZNSt3__114__split_bufferINS_6vectorIiNS_9allocatorIiEEEERNS2_IS4_EEE17__destruct_at_endB7v160006EPS4_, symObjAddr: 0x7380, symBinAddr: 0x10000C430, symSize: 0x30 }
  - { offsetInCU: 0x13BA7, offset: 0x204EB, size: 0x8, addend: 0x0, symName: __ZNSt3__114__split_bufferINS_6vectorIiNS_9allocatorIiEEEERNS2_IS4_EEE17__destruct_at_endB7v160006EPS4_NS_17integral_constantIbLb0EEE, symObjAddr: 0x73B0, symBinAddr: 0x10000C460, symSize: 0x80 }
  - { offsetInCU: 0x13BE9, offset: 0x2052D, size: 0x8, addend: 0x0, symName: __ZNKSt3__114__split_bufferINS_6vectorIiNS_9allocatorIiEEEERNS2_IS4_EEE9__end_capB7v160006Ev, symObjAddr: 0x7430, symBinAddr: 0x10000C4E0, symSize: 0x20 }
  - { offsetInCU: 0x13C0F, offset: 0x20553, size: 0x8, addend: 0x0, symName: __ZNKSt3__117__compressed_pairIPNS_6vectorIiNS_9allocatorIiEEEERNS2_IS4_EEE5firstB7v160006Ev, symObjAddr: 0x7450, symBinAddr: 0x10000C500, symSize: 0x20 }
  - { offsetInCU: 0x13C53, offset: 0x20597, size: 0x8, addend: 0x0, symName: __ZNKSt3__113basic_ostreamIcNS_11char_traitsIcEEE6sentrycvbB7v160006Ev, symObjAddr: 0x7660, symBinAddr: 0x10000C710, symSize: 0x20 }
  - { offsetInCU: 0x13C79, offset: 0x205BD, size: 0x8, addend: 0x0, symName: __ZNSt3__119ostreambuf_iteratorIcNS_11char_traitsIcEEEC1B7v160006ERNS_13basic_ostreamIcS2_EE, symObjAddr: 0x78A0, symBinAddr: 0x10000C950, symSize: 0x30 }
  - { offsetInCU: 0x13CB0, offset: 0x205F4, size: 0x8, addend: 0x0, symName: __ZNKSt3__18ios_base5flagsB7v160006Ev, symObjAddr: 0x78D0, symBinAddr: 0x10000C980, symSize: 0x20 }
  - { offsetInCU: 0x13CD8, offset: 0x2061C, size: 0x8, addend: 0x0, symName: __ZNKSt3__19basic_iosIcNS_11char_traitsIcEEE4fillB7v160006Ev, symObjAddr: 0x78F0, symBinAddr: 0x10000C9A0, symSize: 0x70 }
  - { offsetInCU: 0x13D01, offset: 0x20645, size: 0x8, addend: 0x0, symName: __ZNKSt3__119ostreambuf_iteratorIcNS_11char_traitsIcEEE6failedB7v160006Ev, symObjAddr: 0x7960, symBinAddr: 0x10000CA10, symSize: 0x20 }
  - { offsetInCU: 0x13D26, offset: 0x2066A, size: 0x8, addend: 0x0, symName: __ZNKSt3__18ios_base5widthB7v160006Ev, symObjAddr: 0x7980, symBinAddr: 0x10000CA30, symSize: 0x20 }
  - { offsetInCU: 0x13D4F, offset: 0x20693, size: 0x8, addend: 0x0, symName: __ZNSt3__115basic_streambufIcNS_11char_traitsIcEEE5sputnB7v160006EPKcl, symObjAddr: 0x79A0, symBinAddr: 0x10000CA50, symSize: 0x30 }
  - { offsetInCU: 0x13D91, offset: 0x206D5, size: 0x8, addend: 0x0, symName: __ZNSt3__112basic_stringIcNS_11char_traitsIcEENS_9allocatorIcEEEC1B7v160006Emc, symObjAddr: 0x79D0, symBinAddr: 0x10000CA80, symSize: 0x30 }
  - { offsetInCU: 0x13DD8, offset: 0x2071C, size: 0x8, addend: 0x0, symName: __ZNSt3__18ios_base5widthB7v160006El, symObjAddr: 0x7A00, symBinAddr: 0x10000CAB0, symSize: 0x30 }
  - { offsetInCU: 0x13E20, offset: 0x20764, size: 0x8, addend: 0x0, symName: __ZNSt3__112basic_stringIcNS_11char_traitsIcEENS_9allocatorIcEEEC2B7v160006Emc, symObjAddr: 0x7A30, symBinAddr: 0x10000CAE0, symSize: 0x50 }
  - { offsetInCU: 0x13E68, offset: 0x207AC, size: 0x8, addend: 0x0, symName: __ZNSt3__119ostreambuf_iteratorIcNS_11char_traitsIcEEEC2B7v160006ERNS_13basic_ostreamIcS2_EE, symObjAddr: 0x7A80, symBinAddr: 0x10000CB30, symSize: 0x50 }
  - { offsetInCU: 0x13EA0, offset: 0x207E4, size: 0x8, addend: 0x0, symName: __ZNSt3__16vectorIiNS_9allocatorIiEEEC2ERKS3_, symObjAddr: 0x7AD0, symBinAddr: 0x10000CB80, symSize: 0x110 }
  - { offsetInCU: 0x13F03, offset: 0x20847, size: 0x8, addend: 0x0, symName: __ZNSt3__116allocator_traitsINS_9allocatorIiEEE37select_on_container_copy_constructionB7v160006IS2_vvEES2_RKS2_, symObjAddr: 0x7BE0, symBinAddr: 0x10000CC90, symSize: 0x10 }
  - { offsetInCU: 0x13F32, offset: 0x20876, size: 0x8, addend: 0x0, symName: __ZNSt3__16vectorIiNS_9allocatorIiEEE11__vallocateB7v160006Em, symObjAddr: 0x7C30, symBinAddr: 0x10000CCE0, symSize: 0xA0 }
  - { offsetInCU: 0x13F76, offset: 0x208BA, size: 0x8, addend: 0x0, symName: __ZNSt3__16vectorIiNS_9allocatorIiEEE18__construct_at_endIPiLi0EEEvT_S6_m, symObjAddr: 0x7CD0, symBinAddr: 0x10000CD80, symSize: 0x90 }
  - { offsetInCU: 0x13FEC, offset: 0x20930, size: 0x8, addend: 0x0, symName: __ZNSt3__128__exception_guard_exceptionsINS_6vectorIiNS_9allocatorIiEEE16__destroy_vectorEE10__completeB7v160006Ev, symObjAddr: 0x7D60, symBinAddr: 0x10000CE10, symSize: 0x20 }
  - { offsetInCU: 0x14012, offset: 0x20956, size: 0x8, addend: 0x0, symName: __ZNSt3__128__exception_guard_exceptionsINS_6vectorIiNS_9allocatorIiEEE16__destroy_vectorEED1B7v160006Ev, symObjAddr: 0x7D80, symBinAddr: 0x10000CE30, symSize: 0x20 }
  - { offsetInCU: 0x1403C, offset: 0x20980, size: 0x8, addend: 0x0, symName: __ZNSt3__128__exception_guard_exceptionsINS_6vectorIiNS_9allocatorIiEEE16__destroy_vectorEEC1B7v160006ES5_, symObjAddr: 0x7DA0, symBinAddr: 0x10000CE50, symSize: 0x30 }
  - { offsetInCU: 0x14074, offset: 0x209B8, size: 0x8, addend: 0x0, symName: __ZNSt3__128__exception_guard_exceptionsINS_6vectorIiNS_9allocatorIiEEE16__destroy_vectorEEC2B7v160006ES5_, symObjAddr: 0x7DD0, symBinAddr: 0x10000CE80, symSize: 0x20 }
  - { offsetInCU: 0x140AC, offset: 0x209F0, size: 0x8, addend: 0x0, symName: __ZNSt3__129_AllocatorDestroyRangeReverseINS_9allocatorIiEEPiEC1B7v160006ERS2_RS3_S6_, symObjAddr: 0x7F50, symBinAddr: 0x10000D000, symSize: 0x40 }
  - { offsetInCU: 0x14103, offset: 0x20A47, size: 0x8, addend: 0x0, symName: __ZNSt3__116allocator_traitsINS_9allocatorIiEEE9constructB7v160006IiJRiEvEEvRS2_PT_DpOT0_, symObjAddr: 0x7F90, symBinAddr: 0x10000D040, symSize: 0x30 }
  - { offsetInCU: 0x1415A, offset: 0x20A9E, size: 0x8, addend: 0x0, symName: __ZNSt3__128__exception_guard_exceptionsINS_29_AllocatorDestroyRangeReverseINS_9allocatorIiEEPiEEE10__completeB7v160006Ev, symObjAddr: 0x7FC0, symBinAddr: 0x10000D070, symSize: 0x20 }
  - { offsetInCU: 0x14180, offset: 0x20AC4, size: 0x8, addend: 0x0, symName: __ZNSt3__128__exception_guard_exceptionsINS_29_AllocatorDestroyRangeReverseINS_9allocatorIiEEPiEEED1B7v160006Ev, symObjAddr: 0x7FE0, symBinAddr: 0x10000D090, symSize: 0x20 }
  - { offsetInCU: 0x141AA, offset: 0x20AEE, size: 0x8, addend: 0x0, symName: __ZNSt3__128__exception_guard_exceptionsINS_29_AllocatorDestroyRangeReverseINS_9allocatorIiEEPiEEEC1B7v160006ES5_, symObjAddr: 0x8000, symBinAddr: 0x10000D0B0, symSize: 0x40 }
  - { offsetInCU: 0x141E2, offset: 0x20B26, size: 0x8, addend: 0x0, symName: __ZNSt3__128__exception_guard_exceptionsINS_29_AllocatorDestroyRangeReverseINS_9allocatorIiEEPiEEEC2B7v160006ES5_, symObjAddr: 0x8040, symBinAddr: 0x10000D0F0, symSize: 0x30 }
  - { offsetInCU: 0x1421A, offset: 0x20B5E, size: 0x8, addend: 0x0, symName: __ZNSt3__129_AllocatorDestroyRangeReverseINS_9allocatorIiEEPiEC2B7v160006ERS2_RS3_S6_, symObjAddr: 0x8070, symBinAddr: 0x10000D120, symSize: 0x40 }
  - { offsetInCU: 0x14271, offset: 0x20BB5, size: 0x8, addend: 0x0, symName: __ZNSt3__19allocatorIiE9constructB7v160006IiJRiEEEvPT_DpOT0_, symObjAddr: 0x80B0, symBinAddr: 0x10000D160, symSize: 0x20 }
  - { offsetInCU: 0x142C7, offset: 0x20C0B, size: 0x8, addend: 0x0, symName: __ZNSt3__128__exception_guard_exceptionsINS_29_AllocatorDestroyRangeReverseINS_9allocatorIiEEPiEEED2B7v160006Ev, symObjAddr: 0x80D0, symBinAddr: 0x10000D180, symSize: 0x40 }
  - { offsetInCU: 0x142F1, offset: 0x20C35, size: 0x8, addend: 0x0, symName: __ZNKSt3__129_AllocatorDestroyRangeReverseINS_9allocatorIiEEPiEclB7v160006Ev, symObjAddr: 0x8110, symBinAddr: 0x10000D1C0, symSize: 0x60 }
  - { offsetInCU: 0x1431C, offset: 0x20C60, size: 0x8, addend: 0x0, symName: __ZNSt3__119__to_address_helperINS_16reverse_iteratorIPiEEvE6__callB7v160006ERKS3_, symObjAddr: 0x8200, symBinAddr: 0x10000D2B0, symSize: 0x40 }
  - { offsetInCU: 0x1433F, offset: 0x20C83, size: 0x8, addend: 0x0, symName: __ZNKSt3__116reverse_iteratorIPiEptB7v160006Ev, symObjAddr: 0x8240, symBinAddr: 0x10000D2F0, symSize: 0x20 }
  - { offsetInCU: 0x14365, offset: 0x20CA9, size: 0x8, addend: 0x0, symName: __ZNSt3__128__exception_guard_exceptionsINS_6vectorIiNS_9allocatorIiEEE16__destroy_vectorEED2B7v160006Ev, symObjAddr: 0x8260, symBinAddr: 0x10000D310, symSize: 0x3F }
  - { offsetInCU: 0x6A3C, offset: 0x278A8, size: 0x8, addend: 0x0, symName: __ZN8TGAImageC2Ev, symObjAddr: 0x0, symBinAddr: 0x10000D350, symSize: 0x30 }
  - { offsetInCU: 0x6A68, offset: 0x278D4, size: 0x8, addend: 0x0, symName: __ZN8TGAImageC1Ev, symObjAddr: 0x30, symBinAddr: 0x10000D380, symSize: 0x20 }
  - { offsetInCU: 0x6A94, offset: 0x27900, size: 0x8, addend: 0x0, symName: __ZN8TGAImageC2Eiii, symObjAddr: 0x50, symBinAddr: 0x10000D3A0, symSize: 0x70 }
  - { offsetInCU: 0x6B07, offset: 0x27973, size: 0x8, addend: 0x0, symName: __ZN8TGAImageC1Eiii, symObjAddr: 0xC0, symBinAddr: 0x10000D410, symSize: 0x30 }
  - { offsetInCU: 0x6B5D, offset: 0x279C9, size: 0x8, addend: 0x0, symName: __ZN8TGAImageC2ERKS_, symObjAddr: 0xF0, symBinAddr: 0x10000D440, symSize: 0x80 }
  - { offsetInCU: 0x6BB4, offset: 0x27A20, size: 0x8, addend: 0x0, symName: __ZN8TGAImageC1ERKS_, symObjAddr: 0x170, symBinAddr: 0x10000D4C0, symSize: 0x30 }
  - { offsetInCU: 0x6BEE, offset: 0x27A5A, size: 0x8, addend: 0x0, symName: __ZN8TGAImageD2Ev, symObjAddr: 0x1A0, symBinAddr: 0x10000D4F0, symSize: 0x50 }
  - { offsetInCU: 0x6C1A, offset: 0x27A86, size: 0x8, addend: 0x0, symName: __ZN8TGAImageD1Ev, symObjAddr: 0x1F0, symBinAddr: 0x10000D540, symSize: 0x20 }
  - { offsetInCU: 0x6C46, offset: 0x27AB2, size: 0x8, addend: 0x0, symName: __ZN8TGAImageaSERKS_, symObjAddr: 0x210, symBinAddr: 0x10000D560, symSize: 0xC0 }
  - { offsetInCU: 0x6C99, offset: 0x27B05, size: 0x8, addend: 0x0, symName: __ZN8TGAImage13read_tga_fileEPKc, symObjAddr: 0x2D0, symBinAddr: 0x10000D620, symSize: 0x670 }
  - { offsetInCU: 0x6CFE, offset: 0x27B6A, size: 0x8, addend: 0x0, symName: __ZNKSt3__114basic_ifstreamIcNS_11char_traitsIcEEE7is_openEv, symObjAddr: 0xA20, symBinAddr: 0x10000DC90, symSize: 0x30 }
  - { offsetInCU: 0x6D26, offset: 0x27B92, size: 0x8, addend: 0x0, symName: __ZNSt3__114basic_ifstreamIcNS_11char_traitsIcEEE5closeEv, symObjAddr: 0xA90, symBinAddr: 0x10000DCC0, symSize: 0x50 }
  - { offsetInCU: 0x6D4F, offset: 0x27BBB, size: 0x8, addend: 0x0, symName: __ZNKSt3__19basic_iosIcNS_11char_traitsIcEEE4goodB7v160006Ev, symObjAddr: 0xAE0, symBinAddr: 0x10000DD10, symSize: 0x20 }
  - { offsetInCU: 0x6D74, offset: 0x27BE0, size: 0x8, addend: 0x0, symName: __ZN8TGAImage13load_rle_dataERNSt3__114basic_ifstreamIcNS0_11char_traitsIcEEEE, symObjAddr: 0xB00, symBinAddr: 0x10000DD30, symSize: 0x2B0 }
  - { offsetInCU: 0x6E6F, offset: 0x27CDB, size: 0x8, addend: 0x0, symName: __ZN8TGAImage15flip_verticallyEv, symObjAddr: 0xDB0, symBinAddr: 0x10000DFE0, symSize: 0x110 }
  - { offsetInCU: 0x6F16, offset: 0x27D82, size: 0x8, addend: 0x0, symName: __ZN8TGAImage17flip_horizontallyEv, symObjAddr: 0xEC0, symBinAddr: 0x10000E0F0, symSize: 0x120 }
  - { offsetInCU: 0x6FC1, offset: 0x27E2D, size: 0x8, addend: 0x0, symName: __ZN8TGAColorC1Ev, symObjAddr: 0x1020, symBinAddr: 0x10000E210, symSize: 0x20 }
  - { offsetInCU: 0x6FEA, offset: 0x27E56, size: 0x8, addend: 0x0, symName: __ZN8TGAImage14write_tga_fileEPKcb, symObjAddr: 0x1040, symBinAddr: 0x10000E230, symSize: 0x5E0 }
  - { offsetInCU: 0x707B, offset: 0x27EE7, size: 0x8, addend: 0x0, symName: __ZNSt3__114basic_ofstreamIcNS_11char_traitsIcEEEC1Ev, symObjAddr: 0x1620, symBinAddr: 0x10000E810, symSize: 0xE0 }
  - { offsetInCU: 0x70A7, offset: 0x27F13, size: 0x8, addend: 0x0, symName: __ZNKSt3__114basic_ofstreamIcNS_11char_traitsIcEEE7is_openEv, symObjAddr: 0x1700, symBinAddr: 0x10000E8F0, symSize: 0x30 }
  - { offsetInCU: 0x70CF, offset: 0x27F3B, size: 0x8, addend: 0x0, symName: __ZNSt3__114basic_ofstreamIcNS_11char_traitsIcEEE5closeEv, symObjAddr: 0x1730, symBinAddr: 0x10000E920, symSize: 0x50 }
  - { offsetInCU: 0x70F7, offset: 0x27F63, size: 0x8, addend: 0x0, symName: __ZN8TGAImage15unload_rle_dataERNSt3__114basic_ofstreamIcNS0_11char_traitsIcEEEE, symObjAddr: 0x1780, symBinAddr: 0x10000E970, symSize: 0x2C0 }
  - { offsetInCU: 0x71E2, offset: 0x2804E, size: 0x8, addend: 0x0, symName: __ZNSt3__114basic_ofstreamIcNS_11char_traitsIcEEED1Ev, symObjAddr: 0x1A40, symBinAddr: 0x10000EC30, symSize: 0x40 }
  - { offsetInCU: 0x720E, offset: 0x2807A, size: 0x8, addend: 0x0, symName: __ZN8TGAImage3getEii, symObjAddr: 0x1A80, symBinAddr: 0x10000EC70, symSize: 0xB0 }
  - { offsetInCU: 0x7253, offset: 0x280BF, size: 0x8, addend: 0x0, symName: __ZN8TGAColorC1EPKhi, symObjAddr: 0x1B30, symBinAddr: 0x10000ED20, symSize: 0x30 }
  - { offsetInCU: 0x7299, offset: 0x28105, size: 0x8, addend: 0x0, symName: __ZN8TGAImage3setEii8TGAColor, symObjAddr: 0x1B60, symBinAddr: 0x10000ED50, symSize: 0xB0 }
  - { offsetInCU: 0x72F0, offset: 0x2815C, size: 0x8, addend: 0x0, symName: __ZN8TGAImage11get_bytesppEv, symObjAddr: 0x1C10, symBinAddr: 0x10000EE00, symSize: 0x20 }
  - { offsetInCU: 0x7319, offset: 0x28185, size: 0x8, addend: 0x0, symName: __ZN8TGAImage9get_widthEv, symObjAddr: 0x1C30, symBinAddr: 0x10000EE20, symSize: 0x20 }
  - { offsetInCU: 0x7342, offset: 0x281AE, size: 0x8, addend: 0x0, symName: __ZN8TGAImage10get_heightEv, symObjAddr: 0x1C50, symBinAddr: 0x10000EE40, symSize: 0x20 }
  - { offsetInCU: 0x736B, offset: 0x281D7, size: 0x8, addend: 0x0, symName: __ZN8TGAImage6bufferEv, symObjAddr: 0x1CA0, symBinAddr: 0x10000EE60, symSize: 0x20 }
  - { offsetInCU: 0x7394, offset: 0x28200, size: 0x8, addend: 0x0, symName: __ZN8TGAImage5clearEv, symObjAddr: 0x1CC0, symBinAddr: 0x10000EE80, symSize: 0x30 }
  - { offsetInCU: 0x73BD, offset: 0x28229, size: 0x8, addend: 0x0, symName: __ZN8TGAImage5scaleEii, symObjAddr: 0x1CF0, symBinAddr: 0x10000EEB0, symSize: 0x250 }
  - { offsetInCU: 0x74E6, offset: 0x28352, size: 0x8, addend: 0x0, symName: __ZN8TGAColorC2Ev, symObjAddr: 0x1FC0, symBinAddr: 0x10000F100, symSize: 0x20 }
  - { offsetInCU: 0x7510, offset: 0x2837C, size: 0x8, addend: 0x0, symName: __ZNSt3__114basic_ofstreamIcNS_11char_traitsIcEEED2Ev, symObjAddr: 0x1FE0, symBinAddr: 0x10000F120, symSize: 0x60 }
  - { offsetInCU: 0x754A, offset: 0x283B6, size: 0x8, addend: 0x0, symName: __ZTv0_n24_NSt3__114basic_ofstreamIcNS_11char_traitsIcEEED1Ev, symObjAddr: 0x2040, symBinAddr: 0x10000F180, symSize: 0x20 }
  - { offsetInCU: 0x7561, offset: 0x283CD, size: 0x8, addend: 0x0, symName: __ZN8TGAColorC2EPKhi, symObjAddr: 0x2060, symBinAddr: 0x10000F1A0, symSize: 0x60 }
  - { offsetInCU: 0x75C3, offset: 0x2842F, size: 0x8, addend: 0x0, symName: __ZNKSt3__113basic_filebufIcNS_11char_traitsIcEEE7is_openEv, symObjAddr: 0x2200, symBinAddr: 0x10000F200, symSize: 0x20 }
  - { offsetInCU: 0x7609, offset: 0x28475, size: 0x8, addend: 0x0, symName: __ZNKSt3__18ios_base4goodB7v160006Ev, symObjAddr: 0x2CA0, symBinAddr: 0x10000F220, symSize: 0x20 }
  - { offsetInCU: 0x7632, offset: 0x2849E, size: 0x8, addend: 0x0, symName: __ZNSt3__113basic_ostreamIcNS_11char_traitsIcEEEC2B7v160006EPNS_15basic_streambufIcS2_EE, symObjAddr: 0x2CC0, symBinAddr: 0x10000F240, symSize: 0x47 }
...
